ARM GAS  C:\Users\KE'OND~1\AppData\Local\Temp\ccxCzaNH.s 			page 1


   1              		.syntax unified
   2              		.cpu cortex-m3
   3              		.fpu softvfp
   4              		.eabi_attribute 20, 1
   5              		.eabi_attribute 21, 1
   6              		.eabi_attribute 23, 3
   7              		.eabi_attribute 24, 1
   8              		.eabi_attribute 25, 1
   9              		.eabi_attribute 26, 1
  10              		.eabi_attribute 30, 2
  11              		.eabi_attribute 34, 1
  12              		.eabi_attribute 18, 4
  13              		.thumb
  14              		.file	"vexconfig.c"
  15              		.text
  16              	.Ltext0:
  17              		.cfi_sections	.debug_frame
  18              		.section	.text.vexDigitalConfigure,"ax",%progbits
  19              		.align	2
  20              		.p2align 4,,15
  21              		.global	vexDigitalConfigure
  22              		.thumb
  23              		.thumb_func
  24              		.type	vexDigitalConfigure, %function
  25              	vexDigitalConfigure:
  26              	.LFB63:
  27              		.file 1 "../convex/cortex/fw/vexconfig.c"
  28              		.loc 1 83 0
  29              		.cfi_startproc
  30              		@ args = 0, pretend = 0, frame = 0
  31              		@ frame_needed = 0, uses_anonymous_args = 0
  32              	.LVL0:
  33 0000 2DE9F047 		push	{r4, r5, r6, r7, r8, r9, sl, lr}
  34              	.LCFI0:
  35              		.cfi_def_cfa_offset 32
  36              		.cfi_offset 4, -32
  37              		.cfi_offset 5, -28
  38              		.cfi_offset 6, -24
  39              		.cfi_offset 7, -20
  40              		.cfi_offset 8, -16
  41              		.cfi_offset 9, -12
  42              		.cfi_offset 10, -8
  43              		.cfi_offset 14, -4
  44              		.loc 1 89 0
  45 0004 0028     		cmp	r0, #0
  46 0006 00F08880 		beq	.L21
  47              	.LVL1:
  48              		.loc 1 98 0
  49 000a 0029     		cmp	r1, #0
  50 000c C8BF     		it	gt
  51 000e 464F     		ldrgt	r7, .L30
  52 0010 40F38780 		ble	.L22
  53              	.LVL2:
  54              	.L4:
  55              		.loc 1 82 0
  56 0014 00F10608 		add	r8, r0, #6
  57 0018 4546     		mov	r5, r8
ARM GAS  C:\Users\KE'OND~1\AppData\Local\Temp\ccxCzaNH.s 			page 2


  58 001a 4FF0000A 		mov	sl, #0
  59 001e 0FFA81F9 		sxth	r9, r1
  60 0022 1BE0     		b	.L3
  61              	.L6:
  62              		.loc 1 104 0
  63 0024 0129     		cmp	r1, #1
  64 0026 25D0     		beq	.L23
  65              	.L7:
  66              		.loc 1 108 0
  67 0028 0A29     		cmp	r1, #10
  68 002a 2BD0     		beq	.L24
  69              	.L8:
  70              		.loc 1 119 0
  71 002c 0C29     		cmp	r1, #12
  72 002e 4AD0     		beq	.L25
  73              	.L11:
  74              		.loc 1 130 0
  75 0030 0E29     		cmp	r1, #14
  76 0032 69D0     		beq	.L26
  77              	.L14:
  78              		.loc 1 138 0
  79 0034 15F9063C 		ldrsb	r3, [r5, #-6]
  80 0038 15F8052C 		ldrb	r2, [r5, #-5]	@ zero_extendqisi2
  81 003c 03EB4303 		add	r3, r3, r3, lsl #1
  82 0040 07EB4303 		add	r3, r7, r3, lsl #1
  83 0044 5A70     		strb	r2, [r3, #1]
  84              		.loc 1 139 0
  85 0046 9970     		strb	r1, [r3, #2]
  86 0048 0AF1010A 		add	sl, sl, #1
  87              		.loc 1 140 0
  88 004c 35F8021C 		ldrh	r1, [r5, #-2]
  89              		.loc 1 98 0
  90 0050 0FFA8AF2 		sxth	r2, sl
  91 0054 0635     		adds	r5, r5, #6
  92 0056 9145     		cmp	r9, r2
  93              		.loc 1 140 0
  94 0058 9980     		strh	r1, [r3, #4]	@ movhi
  95              		.loc 1 98 0
  96 005a 5CDD     		ble	.L27
  97              	.L3:
  98              		.loc 1 101 0
  99 005c 15F8041C 		ldrb	r1, [r5, #-4]	@ zero_extendqisi2
 100 0060 0029     		cmp	r1, #0
 101 0062 DFD1     		bne	.L6
 102              		.loc 1 102 0
 103 0064 15F9060C 		ldrsb	r0, [r5, #-6]
 104 0068 FFF7FEFF 		bl	vexDigitalModeSet
 105              	.LVL3:
 106 006c 15F8041C 		ldrb	r1, [r5, #-4]	@ zero_extendqisi2
 107              		.loc 1 104 0
 108 0070 0129     		cmp	r1, #1
 109 0072 D9D1     		bne	.L7
 110              	.L23:
 111              		.loc 1 105 0
 112 0074 15F9060C 		ldrsb	r0, [r5, #-6]
 113 0078 FFF7FEFF 		bl	vexDigitalModeSet
 114              	.LVL4:
ARM GAS  C:\Users\KE'OND~1\AppData\Local\Temp\ccxCzaNH.s 			page 3


 115 007c 15F8041C 		ldrb	r1, [r5, #-4]	@ zero_extendqisi2
 116              		.loc 1 108 0
 117 0080 0A29     		cmp	r1, #10
 118 0082 D3D1     		bne	.L8
 119              	.L24:
 120 0084 4446     		mov	r4, r8
 121 0086 0026     		movs	r6, #0
 122 0088 03E0     		b	.L10
 123              	.L9:
 124              	.LVL5:
 125              		.loc 1 111 0
 126 008a 33B2     		sxth	r3, r6
 127 008c 0634     		adds	r4, r4, #6
 128 008e 4B45     		cmp	r3, r9
 129 0090 15DA     		bge	.L28
 130              	.L10:
 131              		.loc 1 113 0
 132 0092 14F8043C 		ldrb	r3, [r4, #-4]	@ zero_extendqisi2
 133 0096 0136     		adds	r6, r6, #1
 134 0098 0B2B     		cmp	r3, #11
 135 009a F6D1     		bne	.L9
 136              		.loc 1 113 0 is_stmt 0 discriminator 1
 137 009c 34F8020C 		ldrh	r0, [r4, #-2]
 138 00a0 35F8023C 		ldrh	r3, [r5, #-2]
 139 00a4 9842     		cmp	r0, r3
 140 00a6 F0D1     		bne	.L9
 141              		.loc 1 114 0 is_stmt 1
 142 00a8 14F9062C 		ldrsb	r2, [r4, #-6]
 143 00ac C0B2     		uxtb	r0, r0
 144 00ae 15F9061C 		ldrsb	r1, [r5, #-6]
 145 00b2 FFF7FEFF 		bl	vexEncoderAdd
 146              	.LVL6:
 147              		.loc 1 111 0
 148 00b6 33B2     		sxth	r3, r6
 149 00b8 0634     		adds	r4, r4, #6
 150 00ba 4B45     		cmp	r3, r9
 151 00bc E9DB     		blt	.L10
 152              	.L28:
 153 00be 15F8041C 		ldrb	r1, [r5, #-4]	@ zero_extendqisi2
 154              		.loc 1 119 0
 155 00c2 0C29     		cmp	r1, #12
 156 00c4 B4D1     		bne	.L11
 157              	.L25:
 158 00c6 4446     		mov	r4, r8
 159 00c8 0026     		movs	r6, #0
 160 00ca 03E0     		b	.L13
 161              	.L12:
 162              		.loc 1 122 0
 163 00cc 33B2     		sxth	r3, r6
 164 00ce 0634     		adds	r4, r4, #6
 165 00d0 9945     		cmp	r9, r3
 166 00d2 15DD     		ble	.L29
 167              	.L13:
 168              		.loc 1 124 0
 169 00d4 14F8043C 		ldrb	r3, [r4, #-4]	@ zero_extendqisi2
 170 00d8 0136     		adds	r6, r6, #1
 171 00da 0D2B     		cmp	r3, #13
ARM GAS  C:\Users\KE'OND~1\AppData\Local\Temp\ccxCzaNH.s 			page 4


 172 00dc F6D1     		bne	.L12
 173              		.loc 1 124 0 is_stmt 0 discriminator 1
 174 00de 34F8020C 		ldrh	r0, [r4, #-2]
 175 00e2 35F8023C 		ldrh	r3, [r5, #-2]
 176 00e6 9842     		cmp	r0, r3
 177 00e8 F0D1     		bne	.L12
 178              		.loc 1 125 0 is_stmt 1
 179 00ea 14F9062C 		ldrsb	r2, [r4, #-6]
 180 00ee C0B2     		uxtb	r0, r0
 181 00f0 15F9061C 		ldrsb	r1, [r5, #-6]
 182 00f4 FFF7FEFF 		bl	vexSonarAdd
 183              	.LVL7:
 184              		.loc 1 122 0
 185 00f8 33B2     		sxth	r3, r6
 186 00fa 0634     		adds	r4, r4, #6
 187 00fc 9945     		cmp	r9, r3
 188 00fe E9DC     		bgt	.L13
 189              	.L29:
 190 0100 15F8041C 		ldrb	r1, [r5, #-4]	@ zero_extendqisi2
 191              		.loc 1 130 0
 192 0104 0E29     		cmp	r1, #14
 193 0106 95D1     		bne	.L14
 194              	.L26:
 195              		.loc 1 132 0
 196 0108 15F9060C 		ldrsb	r0, [r5, #-6]
 197 010c FFF7FEFF 		bl	vexDigitalIntrSet
 198              	.LVL8:
 199 0110 15F8041C 		ldrb	r1, [r5, #-4]	@ zero_extendqisi2
 200 0114 8EE7     		b	.L14
 201              	.L27:
 202 0116 BDE8F087 		pop	{r4, r5, r6, r7, r8, r9, sl, pc}
 203              	.LVL9:
 204              	.L21:
 205              		.loc 1 90 0
 206 011a 034F     		ldr	r7, .L30
 207              		.loc 1 91 0
 208 011c 0C21     		movs	r1, #12
 209              	.LVL10:
 210              		.loc 1 90 0
 211 011e 3846     		mov	r0, r7
 212              	.LVL11:
 213 0120 78E7     		b	.L4
 214              	.LVL12:
 215              	.L22:
 216 0122 BDE8F087 		pop	{r4, r5, r6, r7, r8, r9, sl, pc}
 217              	.L31:
 218 0126 00BF     		.align	2
 219              	.L30:
 220 0128 00000000 		.word	.LANCHOR0
 221              		.cfi_endproc
 222              	.LFE63:
 223              		.size	vexDigitalConfigure, .-vexDigitalConfigure
 224 012c AFF30080 		.section	.text.vexDigitalTypeGet,"ax",%progbits
 225              		.align	2
 226              		.p2align 4,,15
 227              		.global	vexDigitalTypeGet
 228              		.thumb
ARM GAS  C:\Users\KE'OND~1\AppData\Local\Temp\ccxCzaNH.s 			page 5


 229              		.thumb_func
 230              		.type	vexDigitalTypeGet, %function
 231              	vexDigitalTypeGet:
 232              	.LFB64:
 233              		.loc 1 152 0
 234              		.cfi_startproc
 235              		@ args = 0, pretend = 0, frame = 0
 236              		@ frame_needed = 0, uses_anonymous_args = 0
 237              		@ link register save eliminated.
 238              	.LVL13:
 239              		.loc 1 153 0
 240 0000 0B28     		cmp	r0, #11
 241              		.loc 1 156 0
 242 0002 DFBF     		itttt	le
 243 0004 044B     		ldrle	r3, .L35
 244 0006 00EB4000 		addle	r0, r0, r0, lsl #1
 245              	.LVL14:
 246 000a 03EB4000 		addle	r0, r3, r0, lsl #1
 247 000e 4078     		ldrble	r0, [r0, #1]	@ zero_extendqisi2
 248              		.loc 1 154 0
 249 0010 C8BF     		it	gt
 250 0012 0020     		movgt	r0, #0
 251              		.loc 1 157 0
 252 0014 7047     		bx	lr
 253              	.L36:
 254 0016 00BF     		.align	2
 255              	.L35:
 256 0018 00000000 		.word	.LANCHOR0
 257              		.cfi_endproc
 258              	.LFE64:
 259              		.size	vexDigitalTypeGet, .-vexDigitalTypeGet
 260 001c AFF30080 		.section	.text.vexDigitalTypeGetName,"ax",%progbits
 261              		.align	2
 262              		.p2align 4,,15
 263              		.global	vexDigitalTypeGetName
 264              		.thumb
 265              		.thumb_func
 266              		.type	vexDigitalTypeGetName, %function
 267              	vexDigitalTypeGetName:
 268              	.LFB65:
 269              		.loc 1 167 0
 270              		.cfi_startproc
 271              		@ args = 0, pretend = 0, frame = 0
 272              		@ frame_needed = 0, uses_anonymous_args = 0
 273              		@ link register save eliminated.
 274              	.LVL15:
 275              		.loc 1 170 0
 276 0000 0B28     		cmp	r0, #11
 277              		.loc 1 167 0
 278 0002 10B4     		push	{r4}
 279              	.LCFI1:
 280              		.cfi_def_cfa_offset 4
 281              		.cfi_offset 4, -4
 282              		.loc 1 170 0
 283 0004 38DC     		bgt	.L46
 284              		.loc 1 173 0
 285 0006 1D4A     		ldr	r2, .L51
ARM GAS  C:\Users\KE'OND~1\AppData\Local\Temp\ccxCzaNH.s 			page 6


 286 0008 4100     		lsls	r1, r0, #1
 287 000a 0B18     		adds	r3, r1, r0
 288 000c 02EB4303 		add	r3, r2, r3, lsl #1
 289 0010 5B78     		ldrb	r3, [r3, #1]	@ zero_extendqisi2
 290 0012 013B     		subs	r3, r3, #1
 291 0014 072B     		cmp	r3, #7
 292 0016 08D8     		bhi	.L39
 293 0018 DFE803F0 		tbb	[pc, r3]
 294              	.L45:
 295 001c 09       		.byte	(.L40-.L45)/2
 296 001d 0B       		.byte	(.L47-.L45)/2
 297 001e 0D       		.byte	(.L41-.L45)/2
 298 001f 18       		.byte	(.L42-.L45)/2
 299 0020 23       		.byte	(.L43-.L45)/2
 300 0021 07       		.byte	(.L39-.L45)/2
 301 0022 07       		.byte	(.L39-.L45)/2
 302 0023 04       		.byte	(.L44-.L45)/2
 303              		.align	1
 304              	.L44:
 305              	.LVL16:
 306              		.loc 1 182 0
 307 0024 1648     		ldr	r0, .L51+4
 308              	.LVL17:
 309              	.L38:
 310              		.loc 1 209 0
 311 0026 10BC     		pop	{r4}
 312 0028 7047     		bx	lr
 313              	.LVL18:
 314              	.L39:
 315              		.loc 1 204 0
 316 002a 1648     		ldr	r0, .L51+8
 317              	.LVL19:
 318              		.loc 1 205 0
 319 002c FBE7     		b	.L38
 320              	.LVL20:
 321              	.L40:
 322              		.loc 1 176 0
 323 002e 1648     		ldr	r0, .L51+12
 324              	.LVL21:
 325 0030 F9E7     		b	.L38
 326              	.LVL22:
 327              	.L47:
 328              		.loc 1 179 0
 329 0032 1648     		ldr	r0, .L51+16
 330              	.LVL23:
 331 0034 F7E7     		b	.L38
 332              	.LVL24:
 333              	.L41:
 334              		.loc 1 185 0
 335 0036 0818     		adds	r0, r1, r0
 336              	.LVL25:
 337 0038 02EB4002 		add	r2, r2, r0, lsl #1
 338 003c 9078     		ldrb	r0, [r2, #2]	@ zero_extendqisi2
 339              		.loc 1 186 0
 340 003e 144B     		ldr	r3, .L51+20
 341 0040 144A     		ldr	r2, .L51+24
 342 0042 0A28     		cmp	r0, #10
ARM GAS  C:\Users\KE'OND~1\AppData\Local\Temp\ccxCzaNH.s 			page 7


 343 0044 14BF     		ite	ne
 344 0046 1046     		movne	r0, r2
 345 0048 1846     		moveq	r0, r3
 346 004a ECE7     		b	.L38
 347              	.LVL26:
 348              	.L42:
 349              		.loc 1 191 0
 350 004c 0818     		adds	r0, r1, r0
 351              	.LVL27:
 352 004e 02EB4002 		add	r2, r2, r0, lsl #1
 353 0052 9078     		ldrb	r0, [r2, #2]	@ zero_extendqisi2
 354              		.loc 1 192 0
 355 0054 104B     		ldr	r3, .L51+28
 356 0056 0F4A     		ldr	r2, .L51+24
 357 0058 0C28     		cmp	r0, #12
 358 005a 14BF     		ite	ne
 359 005c 1046     		movne	r0, r2
 360 005e 1846     		moveq	r0, r3
 361 0060 E1E7     		b	.L38
 362              	.LVL28:
 363              	.L43:
 364              		.loc 1 198 0
 365 0062 0818     		adds	r0, r1, r0
 366              	.LVL29:
 367 0064 02EB4002 		add	r2, r2, r0, lsl #1
 368 0068 9078     		ldrb	r0, [r2, #2]	@ zero_extendqisi2
 369              		.loc 1 199 0
 370 006a 0C4B     		ldr	r3, .L51+32
 371 006c 094A     		ldr	r2, .L51+24
 372 006e 0C28     		cmp	r0, #12
 373 0070 14BF     		ite	ne
 374 0072 1046     		movne	r0, r2
 375 0074 1846     		moveq	r0, r3
 376 0076 D6E7     		b	.L38
 377              	.LVL30:
 378              	.L46:
 379              		.loc 1 171 0
 380 0078 0020     		movs	r0, #0
 381              	.LVL31:
 382 007a D4E7     		b	.L38
 383              	.L52:
 384              		.align	2
 385              	.L51:
 386 007c 00000000 		.word	.LANCHOR0
 387 0080 38000000 		.word	.LC7
 388 0084 28000000 		.word	.LC5
 389 0088 08000000 		.word	.LC1
 390 008c 00000000 		.word	.LC0
 391 0090 20000000 		.word	.LC4
 392 0094 34000000 		.word	.LC6
 393 0098 18000000 		.word	.LC3
 394 009c 10000000 		.word	.LC2
 395              		.cfi_endproc
 396              	.LFE65:
 397              		.size	vexDigitalTypeGetName, .-vexDigitalTypeGetName
 398              		.section	.text.vexDigitalChannelGet,"ax",%progbits
 399              		.align	2
ARM GAS  C:\Users\KE'OND~1\AppData\Local\Temp\ccxCzaNH.s 			page 8


 400              		.p2align 4,,15
 401              		.global	vexDigitalChannelGet
 402              		.thumb
 403              		.thumb_func
 404              		.type	vexDigitalChannelGet, %function
 405              	vexDigitalChannelGet:
 406              	.LFB66:
 407              		.loc 1 219 0
 408              		.cfi_startproc
 409              		@ args = 0, pretend = 0, frame = 0
 410              		@ frame_needed = 0, uses_anonymous_args = 0
 411              		@ link register save eliminated.
 412              	.LVL32:
 413              		.loc 1 220 0
 414 0000 0B28     		cmp	r0, #11
 415              		.loc 1 223 0
 416 0002 DFBF     		itttt	le
 417 0004 044B     		ldrle	r3, .L56
 418 0006 00EB4000 		addle	r0, r0, r0, lsl #1
 419              	.LVL33:
 420 000a 03EB4000 		addle	r0, r3, r0, lsl #1
 421 000e 8088     		ldrhle	r0, [r0, #4]
 422              		.loc 1 221 0
 423 0010 C8BF     		it	gt
 424 0012 0020     		movgt	r0, #0
 425              		.loc 1 224 0
 426 0014 7047     		bx	lr
 427              	.L57:
 428 0016 00BF     		.align	2
 429              	.L56:
 430 0018 00000000 		.word	.LANCHOR0
 431              		.cfi_endproc
 432              	.LFE66:
 433              		.size	vexDigitalChannelGet, .-vexDigitalChannelGet
 434 001c AFF30080 		.section	.text.vexDigitalCfgGet,"ax",%progbits
 435              		.align	2
 436              		.p2align 4,,15
 437              		.global	vexDigitalCfgGet
 438              		.thumb
 439              		.thumb_func
 440              		.type	vexDigitalCfgGet, %function
 441              	vexDigitalCfgGet:
 442              	.LFB67:
 443              		.loc 1 236 0
 444              		.cfi_startproc
 445              		@ args = 0, pretend = 0, frame = 0
 446              		@ frame_needed = 0, uses_anonymous_args = 0
 447              		@ link register save eliminated.
 448              	.LVL34:
 449              		.loc 1 237 0
 450 0000 0B28     		cmp	r0, #11
 451              		.loc 1 240 0
 452 0002 DFBF     		itttt	le
 453 0004 044B     		ldrle	r3, .L61
 454 0006 00EB4000 		addle	r0, r0, r0, lsl #1
 455              	.LVL35:
 456 000a 03EB4000 		addle	r0, r3, r0, lsl #1
ARM GAS  C:\Users\KE'OND~1\AppData\Local\Temp\ccxCzaNH.s 			page 9


 457 000e 8078     		ldrble	r0, [r0, #2]	@ zero_extendqisi2
 458              		.loc 1 238 0
 459 0010 C8BF     		it	gt
 460 0012 0020     		movgt	r0, #0
 461              		.loc 1 241 0
 462 0014 7047     		bx	lr
 463              	.L62:
 464 0016 00BF     		.align	2
 465              	.L61:
 466 0018 00000000 		.word	.LANCHOR0
 467              		.cfi_endproc
 468              	.LFE67:
 469              		.size	vexDigitalCfgGet, .-vexDigitalCfgGet
 470 001c AFF30080 		.section	.text.vexMotorConfigure,"ax",%progbits
 471              		.align	2
 472              		.p2align 4,,15
 473              		.global	vexMotorConfigure
 474              		.thumb
 475              		.thumb_func
 476              		.type	vexMotorConfigure, %function
 477              	vexMotorConfigure:
 478              	.LFB68:
 479              		.loc 1 252 0
 480              		.cfi_startproc
 481              		@ args = 0, pretend = 0, frame = 0
 482              		@ frame_needed = 0, uses_anonymous_args = 0
 483              	.LVL36:
 484 0000 38B5     		push	{r3, r4, r5, lr}
 485              	.LCFI2:
 486              		.cfi_def_cfa_offset 16
 487              		.cfi_offset 3, -16
 488              		.cfi_offset 4, -12
 489              		.cfi_offset 5, -8
 490              		.cfi_offset 14, -4
 491              		.loc 1 256 0
 492 0002 0028     		cmp	r0, #0
 493 0004 59D0     		beq	.L63
 494              	.LVL37:
 495              		.loc 1 263 0 discriminator 1
 496 0006 0029     		cmp	r1, #0
 497 0008 57DD     		ble	.L63
 498              		.loc 1 251 0
 499 000a 0139     		subs	r1, r1, #1
 500              	.LVL38:
 501 000c 89B2     		uxth	r1, r1
 502 000e 00F10C03 		add	r3, r0, #12
 503 0012 01EB4101 		add	r1, r1, r1, lsl #1
 504 0016 841D     		adds	r4, r0, #6
 505 0018 03EB4105 		add	r5, r3, r1, lsl #1
 506 001c 25E0     		b	.L69
 507              	.LVL39:
 508              	.L71:
 509              		.loc 1 271 0
 510 001e 062B     		cmp	r3, #6
 511 0020 20D1     		bne	.L66
 512              		.loc 1 275 0
 513 0022 14F8020C 		ldrb	r0, [r4, #-2]	@ zero_extendqisi2
ARM GAS  C:\Users\KE'OND~1\AppData\Local\Temp\ccxCzaNH.s 			page 10


 514 0026 14F9061C 		ldrsb	r1, [r4, #-6]
 515 002a FFF7FEFF 		bl	vexImeSetMotor
 516              	.LVL40:
 517              		.loc 1 277 0
 518 002e 14F8020C 		ldrb	r0, [r4, #-2]	@ zero_extendqisi2
 519 0032 14F8051C 		ldrb	r1, [r4, #-5]	@ zero_extendqisi2
 520 0036 FFF7FEFF 		bl	vexImeSetType
 521              	.LVL41:
 522              		.loc 1 279 0
 523 003a 14F9060C 		ldrsb	r0, [r4, #-6]
 524 003e 34F9022C 		ldrsh	r2, [r4, #-2]
 525 0042 1E49     		ldr	r1, .L72
 526 0044 FFF7FEFF 		bl	vexMotorPositionGetCallback
 527              	.LVL42:
 528              		.loc 1 281 0
 529 0048 14F9060C 		ldrsb	r0, [r4, #-6]
 530 004c 34F9022C 		ldrsh	r2, [r4, #-2]
 531 0050 1B49     		ldr	r1, .L72+4
 532 0052 FFF7FEFF 		bl	vexMotorPositionSetCallback
 533              	.LVL43:
 534              		.loc 1 283 0
 535 0056 14F9060C 		ldrsb	r0, [r4, #-6]
 536 005a 1A49     		ldr	r1, .L72+8
 537 005c 34F9022C 		ldrsh	r2, [r4, #-2]
 538 0060 FFF7FEFF 		bl	vexMotorEncoderIdCallback
 539              	.LVL44:
 540              	.L66:
 541 0064 0634     		adds	r4, r4, #6
 542              		.loc 1 263 0
 543 0066 AC42     		cmp	r4, r5
 544 0068 27D0     		beq	.L63
 545              	.L69:
 546              		.loc 1 266 0
 547 006a 14F9060C 		ldrsb	r0, [r4, #-6]
 548 006e 14F8051C 		ldrb	r1, [r4, #-5]	@ zero_extendqisi2
 549 0072 FFF7FEFF 		bl	vexMotorTypeSet
 550              	.LVL45:
 551              		.loc 1 269 0
 552 0076 14F9060C 		ldrsb	r0, [r4, #-6]
 553 007a 14F8041C 		ldrb	r1, [r4, #-4]	@ zero_extendqisi2
 554 007e FFF7FEFF 		bl	vexMotorDirectionSet
 555              	.LVL46:
 556              		.loc 1 271 0
 557 0082 14F8033C 		ldrb	r3, [r4, #-3]	@ zero_extendqisi2
 558 0086 032B     		cmp	r3, #3
 559 0088 C9D1     		bne	.L71
 560              		.loc 1 288 0
 561 008a 14F9060C 		ldrsb	r0, [r4, #-6]
 562 008e 34F9022C 		ldrsh	r2, [r4, #-2]
 563 0092 0D49     		ldr	r1, .L72+12
 564 0094 FFF7FEFF 		bl	vexMotorPositionGetCallback
 565              	.LVL47:
 566              		.loc 1 290 0
 567 0098 14F9060C 		ldrsb	r0, [r4, #-6]
 568 009c 34F9022C 		ldrsh	r2, [r4, #-2]
 569 00a0 0A49     		ldr	r1, .L72+16
 570 00a2 FFF7FEFF 		bl	vexMotorPositionSetCallback
ARM GAS  C:\Users\KE'OND~1\AppData\Local\Temp\ccxCzaNH.s 			page 11


 571              	.LVL48:
 572              		.loc 1 292 0
 573 00a6 14F9060C 		ldrsb	r0, [r4, #-6]
 574 00aa 34F9022C 		ldrsh	r2, [r4, #-2]
 575 00ae 0849     		ldr	r1, .L72+20
 576 00b0 0634     		adds	r4, r4, #6
 577 00b2 FFF7FEFF 		bl	vexMotorEncoderIdCallback
 578              	.LVL49:
 579              		.loc 1 263 0
 580 00b6 AC42     		cmp	r4, r5
 581 00b8 D7D1     		bne	.L69
 582              	.L63:
 583 00ba 38BD     		pop	{r3, r4, r5, pc}
 584              	.L73:
 585              		.align	2
 586              	.L72:
 587 00bc 00000000 		.word	vexImeGetCount
 588 00c0 00000000 		.word	vexImeSetCount
 589 00c4 00000000 		.word	vexImeGetId
 590 00c8 00000000 		.word	vexEncoderGet
 591 00cc 00000000 		.word	vexEncoderSet
 592 00d0 00000000 		.word	vexEncoderGetId
 593              		.cfi_endproc
 594              	.LFE68:
 595              		.size	vexMotorConfigure, .-vexMotorConfigure
 596 00d4 AFF30080 		.section	.data.vexDefConfig,"aw",%progbits
 596      AFF30080 
 596      AFF30080 
 597              		.align	2
 598              		.set	.LANCHOR0,. + 0
 599              		.type	vexDefConfig, %object
 600              		.size	vexDefConfig, 72
 601              	vexDefConfig:
 602 0000 00       		.byte	0
 603 0001 01       		.byte	1
 604 0002 00       		.byte	0
 605 0003 00       		.space	1
 606 0004 0000     		.short	0
 607 0006 01       		.byte	1
 608 0007 01       		.byte	1
 609 0008 00       		.byte	0
 610 0009 00       		.space	1
 611 000a 0000     		.short	0
 612 000c 02       		.byte	2
 613 000d 01       		.byte	1
 614 000e 00       		.byte	0
 615 000f 00       		.space	1
 616 0010 0000     		.short	0
 617 0012 03       		.byte	3
 618 0013 01       		.byte	1
 619 0014 00       		.byte	0
 620 0015 00       		.space	1
 621 0016 0000     		.short	0
 622 0018 04       		.byte	4
 623 0019 01       		.byte	1
 624 001a 00       		.byte	0
 625 001b 00       		.space	1
ARM GAS  C:\Users\KE'OND~1\AppData\Local\Temp\ccxCzaNH.s 			page 12


 626 001c 0000     		.short	0
 627 001e 05       		.byte	5
 628 001f 01       		.byte	1
 629 0020 00       		.byte	0
 630 0021 00       		.space	1
 631 0022 0000     		.short	0
 632 0024 06       		.byte	6
 633 0025 01       		.byte	1
 634 0026 00       		.byte	0
 635 0027 00       		.space	1
 636 0028 0000     		.short	0
 637 002a 07       		.byte	7
 638 002b 01       		.byte	1
 639 002c 00       		.byte	0
 640 002d 00       		.space	1
 641 002e 0000     		.short	0
 642 0030 08       		.byte	8
 643 0031 01       		.byte	1
 644 0032 00       		.byte	0
 645 0033 00       		.space	1
 646 0034 0000     		.short	0
 647 0036 09       		.byte	9
 648 0037 01       		.byte	1
 649 0038 00       		.byte	0
 650 0039 00       		.space	1
 651 003a 0000     		.short	0
 652 003c 0A       		.byte	10
 653 003d 01       		.byte	1
 654 003e 00       		.byte	0
 655 003f 00       		.space	1
 656 0040 0000     		.short	0
 657 0042 0B       		.byte	11
 658 0043 01       		.byte	1
 659 0044 00       		.byte	0
 660 0045 00       		.space	1
 661 0046 0000     		.short	0
 662              		.section	.rodata.str1.4,"aMS",%progbits,1
 663              		.align	2
 664              	.LC0:
 665 0000 4F757470 		.ascii	"Output\000"
 665      757400
 666 0007 00       		.space	1
 667              	.LC1:
 668 0008 496E7075 		.ascii	"Input\000"
 668      7400
 669 000e 0000     		.space	2
 670              	.LC2:
 671 0010 536F6E61 		.ascii	"SonarIn\000"
 671      72496E00 
 672              	.LC3:
 673 0018 536F6E61 		.ascii	"SonarCm\000"
 673      72436D00 
 674              	.LC4:
 675 0020 456E636F 		.ascii	"Encoder\000"
 675      64657200 
 676              	.LC5:
 677 0028 556E6465 		.ascii	"Undefined\000"
ARM GAS  C:\Users\KE'OND~1\AppData\Local\Temp\ccxCzaNH.s 			page 13


 677      66696E65 
 677      6400
 678 0032 0000     		.space	2
 679              	.LC6:
 680 0034 00       		.ascii	"\000"
 681 0035 000000   		.space	3
 682              	.LC7:
 683 0038 496E7472 		.ascii	"Intrpt\000"
 683      707400
 684 003f 00       		.text
 685              	.Letext0:
 686              		.file 2 "c:/yagarto-20121222/lib/gcc/../../arm-none-eabi/sys-include/stdint.h"
 687              		.file 3 "../ChibiOS_2.6.2/os/ports/GCC/ARMCMx/chtypes.h"
 688              		.file 4 "../convex/cortex/fw/vexdigital.h"
 689              		.file 5 "../convex/cortex/fw/vexencoder.h"
 690              		.file 6 "../convex/cortex/fw/vexsonar.h"
 691              		.file 7 "../convex/cortex/fw/vexmotor.h"
 692              		.file 8 "../convex/cortex/fw/vexime.h"
 693              		.file 9 "../convex/cortex/fw/vexconfig.h"
 694              		.file 10 "../ChibiOS_2.6.2/os/ports/common/ARMCMx/CMSIS/include/core_cm3.h"