ARM GAS  C:\Users\KE'OND~1\AppData\Local\Temp\ccxCzaNH.s 			page 1


   1              		.syntax unified
   2              		.cpu cortex-m3
   3              		.fpu softvfp
   4              		.eabi_attribute 20, 1
   5              		.eabi_attribute 21, 1
   6              		.eabi_attribute 23, 3
   7              		.eabi_attribute 24, 1
   8              		.eabi_attribute 25, 1
   9              		.eabi_attribute 26, 1
  10              		.eabi_attribute 30, 2
  11              		.eabi_attribute 34, 1
  12              		.eabi_attribute 18, 4
  13              		.thumb
  14              		.file	"vexconfig.c"
  15              		.text
  16              	.Ltext0:
  17              		.cfi_sections	.debug_frame
  18              		.section	.text.vexDigitalConfigure,"ax",%progbits
  19              		.align	2
  20              		.p2align 4,,15
  21              		.global	vexDigitalConfigure
  22              		.thumb
  23              		.thumb_func
  24              		.type	vexDigitalConfigure, %function
  25              	vexDigitalConfigure:
  26              	.LFB63:
  27              		.file 1 "../convex/cortex/fw/vexconfig.c"
  28              		.loc 1 83 0
  29              		.cfi_startproc
  30              		@ args = 0, pretend = 0, frame = 0
  31              		@ frame_needed = 0, uses_anonymous_args = 0
  32              	.LVL0:
  33 0000 2DE9F047 		push	{r4, r5, r6, r7, r8, r9, sl, lr}
  34              	.LCFI0:
  35              		.cfi_def_cfa_offset 32
  36              		.cfi_offset 4, -32
  37              		.cfi_offset 5, -28
  38              		.cfi_offset 6, -24
  39              		.cfi_offset 7, -20
  40              		.cfi_offset 8, -16
  41              		.cfi_offset 9, -12
  42              		.cfi_offset 10, -8
  43              		.cfi_offset 14, -4
  44              		.loc 1 89 0
  45 0004 0028     		cmp	r0, #0
  46 0006 00F08880 		beq	.L21
  47              	.LVL1:
  48              		.loc 1 98 0
  49 000a 0029     		cmp	r1, #0
  50 000c C8BF     		it	gt
  51 000e 464F     		ldrgt	r7, .L30
  52 0010 40F38780 		ble	.L22
  53              	.LVL2:
  54              	.L4:
  55              		.loc 1 82 0
  56 0014 00F10608 		add	r8, r0, #6
  57 0018 4546     		mov	r5, r8
ARM GAS  C:\Users\KE'OND~1\AppData\Local\Temp\ccxCzaNH.s 			page 2


  58 001a 4FF0000A 		mov	sl, #0
  59 001e 0FFA81F9 		sxth	r9, r1
  60 0022 1BE0     		b	.L3
  61              	.L6:
  62              		.loc 1 104 0
  63 0024 0129     		cmp	r1, #1
  64 0026 25D0     		beq	.L23
  65              	.L7:
  66              		.loc 1 108 0
  67 0028 0A29     		cmp	r1, #10
  68 002a 2BD0     		beq	.L24
  69              	.L8:
  70              		.loc 1 119 0
  71 002c 0C29     		cmp	r1, #12
  72 002e 4AD0     		beq	.L25
  73              	.L11:
  74              		.loc 1 130 0
  75 0030 0E29     		cmp	r1, #14
  76 0032 69D0     		beq	.L26
  77              	.L14:
  78              		.loc 1 138 0
  79 0034 15F9063C 		ldrsb	r3, [r5, #-6]
  80 0038 15F8052C 		ldrb	r2, [r5, #-5]	@ zero_extendqisi2
  81 003c 03EB4303 		add	r3, r3, r3, lsl #1
  82 0040 07EB4303 		add	r3, r7, r3, lsl #1
  83 0044 5A70     		strb	r2, [r3, #1]
  84              		.loc 1 139 0
  85 0046 9970     		strb	r1, [r3, #2]
  86 0048 0AF1010A 		add	sl, sl, #1
  87              		.loc 1 140 0
  88 004c 35F8021C 		ldrh	r1, [r5, #-2]
  89              		.loc 1 98 0
  90 0050 0FFA8AF2 		sxth	r2, sl
  91 0054 0635     		adds	r5, r5, #6
  92 0056 9145     		cmp	r9, r2
  93              		.loc 1 140 0
  94 0058 9980     		strh	r1, [r3, #4]	@ movhi
  95              		.loc 1 98 0
  96 005a 5CDD     		ble	.L27
  97              	.L3:
  98              		.loc 1 101 0
  99 005c 15F8041C 		ldrb	r1, [r5, #-4]	@ zero_extendqisi2
 100 0060 0029     		cmp	r1, #0
 101 0062 DFD1     		bne	.L6
 102              		.loc 1 102 0
 103 0064 15F9060C 		ldrsb	r0, [r5, #-6]
 104 0068 FFF7FEFF 		bl	vexDigitalModeSet
 105              	.LVL3:
 106 006c 15F8041C 		ldrb	r1, [r5, #-4]	@ zero_extendqisi2
 107              		.loc 1 104 0
 108 0070 0129     		cmp	r1, #1
 109 0072 D9D1     		bne	.L7
 110              	.L23:
 111              		.loc 1 105 0
 112 0074 15F9060C 		ldrsb	r0, [r5, #-6]
 113 0078 FFF7FEFF 		bl	vexDigitalModeSet
 114              	.LVL4:
ARM GAS  C:\Users\KE'OND~1\AppData\Local\Temp\ccxCzaNH.s 			page 3


 115 007c 15F8041C 		ldrb	r1, [r5, #-4]	@ zero_extendqisi2
 116              		.loc 1 108 0
 117 0080 0A29     		cmp	r1, #10
 118 0082 D3D1     		bne	.L8
 119              	.L24:
 120 0084 4446     		mov	r4, r8
 121 0086 0026     		movs	r6, #0
 122 0088 03E0     		b	.L10
 123              	.L9:
 124              	.LVL5:
 125              		.loc 1 111 0
 126 008a 33B2     		sxth	r3, r6
 127 008c 0634     		adds	r4, r4, #6
 128 008e 4B45     		cmp	r3, r9
 129 0090 15DA     		bge	.L28
 130              	.L10:
 131              		.loc 1 113 0
 132 0092 14F8043C 		ldrb	r3, [r4, #-4]	@ zero_extendqisi2
 133 0096 0136     		adds	r6, r6, #1
 134 0098 0B2B     		cmp	r3, #11
 135 009a F6D1     		bne	.L9
 136              		.loc 1 113 0 is_stmt 0 discriminator 1
 137 009c 34F8020C 		ldrh	r0, [r4, #-2]
 138 00a0 35F8023C 		ldrh	r3, [r5, #-2]
 139 00a4 9842     		cmp	r0, r3
 140 00a6 F0D1     		bne	.L9
 141              		.loc 1 114 0 is_stmt 1
 142 00a8 14F9062C 		ldrsb	r2, [r4, #-6]
 143 00ac C0B2     		uxtb	r0, r0
 144 00ae 15F9061C 		ldrsb	r1, [r5, #-6]
 145 00b2 FFF7FEFF 		bl	vexEncoderAdd
 146              	.LVL6:
 147              		.loc 1 111 0
 148 00b6 33B2     		sxth	r3, r6
 149 00b8 0634     		adds	r4, r4, #6
 150 00ba 4B45     		cmp	r3, r9
 151 00bc E9DB     		blt	.L10
 152              	.L28:
 153 00be 15F8041C 		ldrb	r1, [r5, #-4]	@ zero_extendqisi2
 154              		.loc 1 119 0
 155 00c2 0C29     		cmp	r1, #12
 156 00c4 B4D1     		bne	.L11
 157              	.L25:
 158 00c6 4446     		mov	r4, r8
 159 00c8 0026     		movs	r6, #0
 160 00ca 03E0     		b	.L13
 161              	.L12:
 162              		.loc 1 122 0
 163 00cc 33B2     		sxth	r3, r6
 164 00ce 0634     		adds	r4, r4, #6
 165 00d0 9945     		cmp	r9, r3
 166 00d2 15DD     		ble	.L29
 167              	.L13:
 168              		.loc 1 124 0
 169 00d4 14F8043C 		ldrb	r3, [r4, #-4]	@ zero_extendqisi2
 170 00d8 0136     		adds	r6, r6, #1
 171 00da 0D2B     		cmp	r3, #13
ARM GAS  C:\Users\KE'OND~1\AppData\Local\Temp\ccxCzaNH.s 			page 4


 172 00dc F6D1     		bne	.L12
 173              		.loc 1 124 0 is_stmt 0 discriminator 1
 174 00de 34F8020C 		ldrh	r0, [r4, #-2]
 175 00e2 35F8023C 		ldrh	r3, [r5, #-2]
 176 00e6 9842     		cmp	r0, r3
 177 00e8 F0D1     		bne	.L12
 178              		.loc 1 125 0 is_stmt 1
 179 00ea 14F9062C 		ldrsb	r2, [r4, #-6]
 180 00ee C0B2     		uxtb	r0, r0
 181 00f0 15F9061C 		ldrsb	r1, [r5, #-6]
 182 00f4 FFF7FEFF 		bl	vexSonarAdd
 183              	.LVL7:
 184              		.loc 1 122 0
 185 00f8 33B2     		sxth	r3, r6
 186 00fa 0634     		adds	r4, r4, #6
 187 00fc 9945     		cmp	r9, r3
 188 00fe E9DC     		bgt	.L13
 189              	.L29:
 190 0100 15F8041C 		ldrb	r1, [r5, #-4]	@ zero_extendqisi2
 191              		.loc 1 130 0
 192 0104 0E29     		cmp	r1, #14
 193 0106 95D1     		bne	.L14
 194              	.L26:
 195              		.loc 1 132 0
 196 0108 15F9060C 		ldrsb	r0, [r5, #-6]
 197 010c FFF7FEFF 		bl	vexDigitalIntrSet
 198              	.LVL8:
 199 0110 15F8041C 		ldrb	r1, [r5, #-4]	@ zero_extendqisi2
 200 0114 8EE7     		b	.L14
 201              	.L27:
 202 0116 BDE8F087 		pop	{r4, r5, r6, r7, r8, r9, sl, pc}
 203              	.LVL9:
 204              	.L21:
 205              		.loc 1 90 0
 206 011a 034F     		ldr	r7, .L30
 207              		.loc 1 91 0
 208 011c 0C21     		movs	r1, #12
 209              	.LVL10:
 210              		.loc 1 90 0
 211 011e 3846     		mov	r0, r7
 212              	.LVL11:
 213 0120 78E7     		b	.L4
 214              	.LVL12:
 215              	.L22:
 216 0122 BDE8F087 		pop	{r4, r5, r6, r7, r8, r9, sl, pc}
 217              	.L31:
 218 0126 00BF     		.align	2
 219              	.L30:
 220 0128 00000000 		.word	.LANCHOR0
 221              		.cfi_endproc
 222              	.LFE63:
 223              		.size	vexDigitalConfigure, .-vexDigitalConfigure
 224 012c AFF30080 		.section	.text.vexDigitalTypeGet,"ax",%progbits
 225              		.align	2
 226              		.p2align 4,,15
 227              		.global	vexDigitalTypeGet
 228              		.thumb
ARM GAS  C:\Users\KE'OND~1\AppData\Local\Temp\ccxCzaNH.s 			page 5


 229              		.thumb_func
 230              		.type	vexDigitalTypeGet, %function
 231              	vexDigitalTypeGet:
 232              	.LFB64:
 233              		.loc 1 152 0
 234              		.cfi_startproc
 235              		@ args = 0, pretend = 0, frame = 0
 236              		@ frame_needed = 0, uses_anonymous_args = 0
 237              		@ link register save eliminated.
 238              	.LVL13:
 239              		.loc 1 153 0
 240 0000 0B28     		cmp	r0, #11
 241              		.loc 1 156 0
 242 0002 DFBF     		itttt	le
 243 0004 044B     		ldrle	r3, .L35
 244 0006 00EB4000 		addle	r0, r0, r0, lsl #1
 245              	.LVL14:
 246 000a 03EB4000 		addle	r0, r3, r0, lsl #1
 247 000e 4078     		ldrble	r0, [r0, #1]	@ zero_extendqisi2
 248              		.loc 1 154 0
 249 0010 C8BF     		it	gt
 250 0012 0020     		movgt	r0, #0
 251              		.loc 1 157 0
 252 0014 7047     		bx	lr
 253              	.L36:
 254 0016 00BF     		.align	2
 255              	.L35:
 256 0018 00000000 		.word	.LANCHOR0
 257              		.cfi_endproc
 258              	.LFE64:
 259              		.size	vexDigitalTypeGet, .-vexDigitalTypeGet
 260 001c AFF30080 		.section	.text.vexDigitalTypeGetName,"ax",%progbits
 261              		.align	2
 262              		.p2align 4,,15
 263              		.global	vexDigitalTypeGetName
 264              		.thumb
 265              		.thumb_func
 266              		.type	vexDigitalTypeGetName, %function
 267              	vexDigitalTypeGetName:
 268              	.LFB65:
 269              		.loc 1 167 0
 270              		.cfi_startproc
 271              		@ args = 0, pretend = 0, frame = 0
 272              		@ frame_needed = 0, uses_anonymous_args = 0
 273              		@ link register save eliminated.
 274              	.LVL15:
 275              		.loc 1 170 0
 276 0000 0B28     		cmp	r0, #11
 277              		.loc 1 167 0
 278 0002 10B4     		push	{r4}
 279              	.LCFI1:
 280              		.cfi_def_cfa_offset 4
 281              		.cfi_offset 4, -4
 282              		.loc 1 170 0
 283 0004 38DC     		bgt	.L46
 284              		.loc 1 173 0
 285 0006 1D4A     		ldr	r2, .L51
ARM GAS  C:\Users\KE'OND~1\AppData\Local\Temp\ccxCzaNH.s 			page 6


 286 0008 4100     		lsls	r1, r0, #1
 287 000a 0B18     		adds	r3, r1, r0
 288 000c 02EB4303 		add	r3, r2, r3, lsl #1
 289 0010 5B78     		ldrb	r3, [r3, #1]	@ zero_extendqisi2
 290 0012 013B     		subs	r3, r3, #1
 291 0014 072B     		cmp	r3, #7
 292 0016 08D8     		bhi	.L39
 293 0018 DFE803F0 		tbb	[pc, r3]
 294              	.L45:
 295 001c 09       		.byte	(.L40-.L45)/2
 296 001d 0B       		.byte	(.L47-.L45)/2
 297 001e 0D       		.byte	(.L41-.L45)/2
 298 001f 18       		.byte	(.L42-.L45)/2
 299 0020 23       		.byte	(.L43-.L45)/2
 300 0021 07       		.byte	(.L39-.L45)/2
 301 0022 07       		.byte	(.L39-.L45)/2
 302 0023 04       		.byte	(.L44-.L45)/2
 303              		.align	1
 304              	.L44:
 305              	.LVL16:
 306              		.loc 1 182 0
 307 0024 1648     		ldr	r0, .L51+4
 308              	.LVL17:
 309              	.L38:
 310              		.loc 1 209 0
 311 0026 10BC     		pop	{r4}
 312 0028 7047     		bx	lr
 313              	.LVL18:
 314              	.L39:
 315              		.loc 1 204 0
 316 002a 1648     		ldr	r0, .L51+8
 317              	.LVL19:
 318              		.loc 1 205 0
 319 002c FBE7     		b	.L38
 320              	.LVL20:
 321              	.L40:
 322              		.loc 1 176 0
 323 002e 1648     		ldr	r0, .L51+12
 324              	.LVL21:
 325 0030 F9E7     		b	.L38
 326              	.LVL22:
 327              	.L47:
 328              		.loc 1 179 0
 329 0032 1648     		ldr	r0, .L51+16
 330              	.LVL23:
 331 0034 F7E7     		b	.L38
 332              	.LVL24:
 333              	.L41:
 334              		.loc 1 185 0
 335 0036 0818     		adds	r0, r1, r0
 336              	.LVL25:
 337 0038 02EB4002 		add	r2, r2, r0, lsl #1
 338 003c 9078     		ldrb	r0, [r2, #2]	@ zero_extendqisi2
 339              		.loc 1 186 0
 340 003e 144B     		ldr	r3, .L51+20
 341 0040 144A     		ldr	r2, .L51+24
 342 0042 0A28     		cmp	r0, #10
ARM GAS  C:\Users\KE'OND~1\AppData\Local\Temp\ccxCzaNH.s 			page 7


 343 0044 14BF     		ite	ne
 344 0046 1046     		movne	r0, r2
 345 0048 1846     		moveq	r0, r3
 346 004a ECE7     		b	.L38
 347              	.LVL26:
 348              	.L42:
 349              		.loc 1 191 0
 350 004c 0818     		adds	r0, r1, r0
 351              	.LVL27:
 352 004e 02EB4002 		add	r2, r2, r0, lsl #1
 353 0052 9078     		ldrb	r0, [r2, #2]	@ zero_extendqisi2
 354              		.loc 1 192 0
 355 0054 104B     		ldr	r3, .L51+28
 356 0056 0F4A     		ldr	r2, .L51+24
 357 0058 0C28     		cmp	r0, #12
 358 005a 14BF     		ite	ne
 359 005c 1046     		movne	r0, r2
 360 005e 1846     		moveq	r0, r3
 361 0060 E1E7     		b	.L38
 362              	.LVL28:
 363              	.L43:
 364              		.loc 1 198 0
 365 0062 0818     		adds	r0, r1, r0
 366              	.LVL29:
 367 0064 02EB4002 		add	r2, r2, r0, lsl #1
 368 0068 9078     		ldrb	r0, [r2, #2]	@ zero_extendqisi2
 369              		.loc 1 199 0
 370 006a 0C4B     		ldr	r3, .L51+32
 371 006c 094A     		ldr	r2, .L51+24
 372 006e 0C28     		cmp	r0, #12
 373 0070 14BF     		ite	ne
 374 0072 1046     		movne	r0, r2
 375 0074 1846     		moveq	r0, r3
 376 0076 D6E7     		b	.L38
 377              	.LVL30:
 378              	.L46:
 379              		.loc 1 171 0
 380 0078 0020     		movs	r0, #0
 381              	.LVL31:
 382 007a D4E7     		b	.L38
 383              	.L52:
 384              		.align	2
 385              	.L51:
 386 007c 00000000 		.word	.LANCHOR0
 387 0080 38000000 		.word	.LC7
 388 0084 28000000 		.word	.LC5
 389 0088 08000000 		.word	.LC1
 390 008c 00000000 		.word	.LC0
 391 0090 20000000 		.word	.LC4
 392 0094 34000000 		.word	.LC6
 393 0098 18000000 		.word	.LC3
 394 009c 10000000 		.word	.LC2
 395              		.cfi_endproc
 396              	.LFE65:
 397              		.size	vexDigitalTypeGetName, .-vexDigitalTypeGetName
 398              		.section	.text.vexDigitalChannelGet,"ax",%progbits
 399              		.align	2
ARM GAS  C:\Users\KE'OND~1\AppData\Local\Temp\ccxCzaNH.s 			page 8


 400              		.p2align 4,,15
 401              		.global	vexDigitalChannelGet
 402              		.thumb
 403              		.thumb_func
 404              		.type	vexDigitalChannelGet, %function
 405              	vexDigitalChannelGet:
 406              	.LFB66:
 407              		.loc 1 219 0
 408              		.cfi_startproc
 409              		@ args = 0, pretend = 0, frame = 0
 410              		@ frame_needed = 0, uses_anonymous_args = 0
 411              		@ link register save eliminated.
 412              	.LVL32:
 413              		.loc 1 220 0
 414 0000 0B28     		cmp	r0, #11
 415              		.loc 1 223 0
 416 0002 DFBF     		itttt	le
 417 0004 044B     		ldrle	r3, .L56
 418 0006 00EB4000 		addle	r0, r0, r0, lsl #1
 419              	.LVL33:
 420 000a 03EB4000 		addle	r0, r3, r0, lsl #1
 421 000e 8088     		ldrhle	r0, [r0, #4]
 422              		.loc 1 221 0
 423 0010 C8BF     		it	gt
 424 0012 0020     		movgt	r0, #0
 425              		.loc 1 224 0
 426 0014 7047     		bx	lr
 427              	.L57:
 428 0016 00BF     		.align	2
 429              	.L56:
 430 0018 00000000 		.word	.LANCHOR0
 431              		.cfi_endproc
 432              	.LFE66:
 433              		.size	vexDigitalChannelGet, .-vexDigitalChannelGet
 434 001c AFF30080 		.section	.text.vexDigitalCfgGet,"ax",%progbits
 435              		.align	2
 436              		.p2align 4,,15
 437              		.global	vexDigitalCfgGet
 438              		.thumb
 439              		.thumb_func
 440              		.type	vexDigitalCfgGet, %function
 441              	vexDigitalCfgGet:
 442              	.LFB67:
 443              		.loc 1 236 0
 444              		.cfi_startproc
 445              		@ args = 0, pretend = 0, frame = 0
 446              		@ frame_needed = 0, uses_anonymous_args = 0
 447              		@ link register save eliminated.
 448              	.LVL34:
 449              		.loc 1 237 0
 450 0000 0B28     		cmp	r0, #11
 451              		.loc 1 240 0
 452 0002 DFBF     		itttt	le
 453 0004 044B     		ldrle	r3, .L61
 454 0006 00EB4000 		addle	r0, r0, r0, lsl #1
 455              	.LVL35:
 456 000a 03EB4000 		addle	r0, r3, r0, lsl #1
ARM GAS  C:\Users\KE'OND~1\AppData\Local\Temp\ccxCzaNH.s 			page 9


 457 000e 8078     		ldrble	r0, [r0, #2]	@ zero_extendqisi2
 458              		.loc 1 238 0
 459 0010 C8BF     		it	gt
 460 0012 0020     		movgt	r0, #0
 461              		.loc 1 241 0
 462 0014 7047     		bx	lr
 463              	.L62:
 464 0016 00BF     		.align	2
 465              	.L61:
 466 0018 00000000 		.word	.LANCHOR0
 467              		.cfi_endproc
 468              	.LFE67:
 469              		.size	vexDigitalCfgGet, .-vexDigitalCfgGet
 470 001c AFF30080 		.section	.text.vexMotorConfigure,"ax",%progbits
 471              		.align	2
 472              		.p2align 4,,15
 473              		.global	vexMotorConfigure
 474              		.thumb
 475              		.thumb_func
 476              		.type	vexMotorConfigure, %function
 477              	vexMotorConfigure:
 478              	.LFB68:
 479              		.loc 1 252 0
 480              		.cfi_startproc
 481              		@ args = 0, pretend = 0, frame = 0
 482              		@ frame_needed = 0, uses_anonymous_args = 0
 483              	.LVL36:
 484 0000 38B5     		push	{r3, r4, r5, lr}
 485              	.LCFI2:
 486              		.cfi_def_cfa_offset 16
 487              		.cfi_offset 3, -16
 488              		.cfi_offset 4, -12
 489              		.cfi_offset 5, -8
 490              		.cfi_offset 14, -4
 491              		.loc 1 256 0
 492 0002 0028     		cmp	r0, #0
 493 0004 59D0     		beq	.L63
 494              	.LVL37:
 495              		.loc 1 263 0 discriminator 1
 496 0006 0029     		cmp	r1, #0
 497 0008 57DD     		ble	.L63
 498              		.loc 1 251 0
 499 000a 0139     		subs	r1, r1, #1
 500              	.LVL38:
 501 000c 89B2     		uxth	r1, r1
 502 000e 00F10C03 		add	r3, r0, #12
 503 0012 01EB4101 		add	r1, r1, r1, lsl #1
 504 0016 841D     		adds	r4, r0, #6
 505 0018 03EB4105 		add	r5, r3, r1, lsl #1
 506 001c 25E0     		b	.L69
 507              	.LVL39:
 508              	.L71:
 509              		.loc 1 271 0
 510 001e 062B     		cmp	r3, #6
 511 0020 20D1     		bne	.L66
 512              		.loc 1 275 0
 513 0022 14F8020C 		ldrb	r0, [r4, #-2]	@ zero_extendqisi2
ARM GAS  C:\Users\KE'OND~1\AppData\Local\Temp\ccxCzaNH.s 			page 10


 514 0026 14F9061C 		ldrsb	r1, [r4, #-6]
 515 002a FFF7FEFF 		bl	vexImeSetMotor
 516              	.LVL40:
 517              		.loc 1 277 0
 518 002e 14F8020C 		ldrb	r0, [r4, #-2]	@ zero_extendqisi2
 519 0032 14F8051C 		ldrb	r1, [r4, #-5]	@ zero_extendqisi2
 520 0036 FFF7FEFF 		bl	vexImeSetType
 521              	.LVL41:
 522              		.loc 1 279 0
 523 003a 14F9060C 		ldrsb	r0, [r4, #-6]
 524 003e 34F9022C 		ldrsh	r2, [r4, #-2]
 525 0042 1E49     		ldr	r1, .L72
 526 0044 FFF7FEFF 		bl	vexMotorPositionGetCallback
 527              	.LVL42:
 528              		.loc 1 281 0
 529 0048 14F9060C 		ldrsb	r0, [r4, #-6]
 530 004c 34F9022C 		ldrsh	r2, [r4, #-2]
 531 0050 1B49     		ldr	r1, .L72+4
 532 0052 FFF7FEFF 		bl	vexMotorPositionSetCallback
 533              	.LVL43:
 534              		.loc 1 283 0
 535 0056 14F9060C 		ldrsb	r0, [r4, #-6]
 536 005a 1A49     		ldr	r1, .L72+8
 537 005c 34F9022C 		ldrsh	r2, [r4, #-2]
 538 0060 FFF7FEFF 		bl	vexMotorEncoderIdCallback
 539              	.LVL44:
 540              	.L66:
 541 0064 0634     		adds	r4, r4, #6
 542              		.loc 1 263 0
 543 0066 AC42     		cmp	r4, r5
 544 0068 27D0     		beq	.L63
 545              	.L69:
 546              		.loc 1 266 0
 547 006a 14F9060C 		ldrsb	r0, [r4, #-6]
 548 006e 14F8051C 		ldrb	r1, [r4, #-5]	@ zero_extendqisi2
 549 0072 FFF7FEFF 		bl	vexMotorTypeSet
 550              	.LVL45:
 551              		.loc 1 269 0
 552 0076 14F9060C 		ldrsb	r0, [r4, #-6]
 553 007a 14F8041C 		ldrb	r1, [r4, #-4]	@ zero_extendqisi2
 554 007e FFF7FEFF 		bl	vexMotorDirectionSet
 555              	.LVL46:
 556              		.loc 1 271 0
 557 0082 14F8033C 		ldrb	r3, [r4, #-3]	@ zero_extendqisi2
 558 0086 032B     		cmp	r3, #3
 559 0088 C9D1     		bne	.L71
 560              		.loc 1 288 0
 561 008a 14F9060C 		ldrsb	r0, [r4, #-6]
 562 008e 34F9022C 		ldrsh	r2, [r4, #-2]
 563 0092 0D49     		ldr	r1, .L72+12
 564 0094 FFF7FEFF 		bl	vexMotorPositionGetCallback
 565              	.LVL47:
 566              		.loc 1 290 0
 567 0098 14F9060C 		ldrsb	r0, [r4, #-6]
 568 009c 34F9022C 		ldrsh	r2, [r4, #-2]
 569 00a0 0A49     		ldr	r1, .L72+16
 570 00a2 FFF7FEFF 		bl	vexMotorPositionSetCallback
ARM GAS  C:\Users\KE'OND~1\AppData\Local\Temp\ccxCzaNH.s 			page 11


 571              	.LVL48:
 572              		.loc 1 292 0
 573 00a6 14F9060C 		ldrsb	r0, [r4, #-6]
 574 00aa 34F9022C 		ldrsh	r2, [r4, #-2]
 575 00ae 0849     		ldr	r1, .L72+20
 576 00b0 0634     		adds	r4, r4, #6
 577 00b2 FFF7FEFF 		bl	vexMotorEncoderIdCallback
 578              	.LVL49:
 579              		.loc 1 263 0
 580 00b6 AC42     		cmp	r4, r5
 581 00b8 D7D1     		bne	.L69
 582              	.L63:
 583 00ba 38BD     		pop	{r3, r4, r5, pc}
 584              	.L73:
 585              		.align	2
 586              	.L72:
 587 00bc 00000000 		.word	vexImeGetCount
 588 00c0 00000000 		.word	vexImeSetCount
 589 00c4 00000000 		.word	vexImeGetId
 590 00c8 00000000 		.word	vexEncoderGet
 591 00cc 00000000 		.word	vexEncoderSet
 592 00d0 00000000 		.word	vexEncoderGetId
 593              		.cfi_endproc
 594              	.LFE68:
 595              		.size	vexMotorConfigure, .-vexMotorConfigure
 596 00d4 AFF30080 		.section	.data.vexDefConfig,"aw",%progbits
 596      AFF30080 
 596      AFF30080 
 597              		.align	2
 598              		.set	.LANCHOR0,. + 0
 599              		.type	vexDefConfig, %object
 600              		.size	vexDefConfig, 72
 601              	vexDefConfig:
 602 0000 00       		.byte	0
 603 0001 01       		.byte	1
 604 0002 00       		.byte	0
 605 0003 00       		.space	1
 606 0004 0000     		.short	0
 607 0006 01       		.byte	1
 608 0007 01       		.byte	1
 609 0008 00       		.byte	0
 610 0009 00       		.space	1
 611 000a 0000     		.short	0
 612 000c 02       		.byte	2
 613 000d 01       		.byte	1
 614 000e 00       		.byte	0
 615 000f 00       		.space	1
 616 0010 0000     		.short	0
 617 0012 03       		.byte	3
 618 0013 01       		.byte	1
 619 0014 00       		.byte	0
 620 0015 00       		.space	1
 621 0016 0000     		.short	0
 622 0018 04       		.byte	4
 623 0019 01       		.byte	1
 624 001a 00       		.byte	0
 625 001b 00       		.space	1
ARM GAS  C:\Users\KE'OND~1\AppData\Local\Temp\ccxCzaNH.s 			page 12


 626 001c 0000     		.short	0
 627 001e 05       		.byte	5
 628 001f 01       		.byte	1
 629 0020 00       		.byte	0
 630 0021 00       		.space	1
 631 0022 0000     		.short	0
 632 0024 06       		.byte	6
 633 0025 01       		.byte	1
 634 0026 00       		.byte	0
 635 0027 00       		.space	1
 636 0028 0000     		.short	0
 637 002a 07       		.byte	7
 638 002b 01       		.byte	1
 639 002c 00       		.byte	0
 640 002d 00       		.space	1
 641 002e 0000     		.short	0
 642 0030 08       		.byte	8
 643 0031 01       		.byte	1
 644 0032 00       		.byte	0
 645 0033 00       		.space	1
 646 0034 0000     		.short	0
 647 0036 09       		.byte	9
 648 0037 01       		.byte	1
 649 0038 00       		.byte	0
 650 0039 00       		.space	1
 651 003a 0000     		.short	0
 652 003c 0A       		.byte	10
 653 003d 01       		.byte	1
 654 003e 00       		.byte	0
 655 003f 00       		.space	1
 656 0040 0000     		.short	0
 657 0042 0B       		.byte	11
 658 0043 01       		.byte	1
 659 0044 00       		.byte	0
 660 0045 00       		.space	1
 661 0046 0000     		.short	0
 662              		.section	.rodata.str1.4,"aMS",%progbits,1
 663              		.align	2
 664              	.LC0:
 665 0000 4F757470 		.ascii	"Output\000"
 665      757400
 666 0007 00       		.space	1
 667              	.LC1:
 668 0008 496E7075 		.ascii	"Input\000"
 668      7400
 669 000e 0000     		.space	2
 670              	.LC2:
 671 0010 536F6E61 		.ascii	"SonarIn\000"
 671      72496E00 
 672              	.LC3:
 673 0018 536F6E61 		.ascii	"SonarCm\000"
 673      72436D00 
 674              	.LC4:
 675 0020 456E636F 		.ascii	"Encoder\000"
 675      64657200 
 676              	.LC5:
 677 0028 556E6465 		.ascii	"Undefined\000"
ARM GAS  C:\Users\KE'OND~1\AppData\Local\Temp\ccxCzaNH.s 			page 13


 677      66696E65 
 677      6400
 678 0032 0000     		.space	2
 679              	.LC6:
 680 0034 00       		.ascii	"\000"
 681 0035 000000   		.space	3
 682              	.LC7:
 683 0038 496E7472 		.ascii	"Intrpt\000"
 683      707400
 684 003f 00       		.text
 685              	.Letext0:
 686              		.file 2 "c:/yagarto-20121222/lib/gcc/../../arm-none-eabi/sys-include/stdint.h"
 687              		.file 3 "../ChibiOS_2.6.2/os/ports/GCC/ARMCMx/chtypes.h"
 688              		.file 4 "../convex/cortex/fw/vexdigital.h"
 689              		.file 5 "../convex/cortex/fw/vexencoder.h"
 690              		.file 6 "../convex/cortex/fw/vexsonar.h"
 691              		.file 7 "../convex/cortex/fw/vexmotor.h"
 692              		.file 8 "../convex/cortex/fw/vexime.h"
 693              		.file 9 "../convex/cortex/fw/vexconfig.h"
 694              		.file 10 "../ChibiOS_2.6.2/os/ports/common/ARMCMx/CMSIS/include/core_cm3.h"
 695              		.section	.debug_info,"",%progbits
 696              	.Ldebug_info0:
 697 0000 96070000 		.4byte	0x796
 698 0004 0200     		.2byte	0x2
 699 0006 00000000 		.4byte	.Ldebug_abbrev0
 700 000a 04       		.byte	0x4
 701 000b 01       		.uleb128 0x1
 702 000c 82040000 		.4byte	.LASF128
 703 0010 01       		.byte	0x1
 704 0011 20000000 		.4byte	.LASF129
 705 0015 86010000 		.4byte	.LASF130
 706 0019 00000000 		.4byte	.Ldebug_ranges0+0
 707 001d 00000000 		.4byte	0
 708 0021 00000000 		.4byte	0
 709 0025 00000000 		.4byte	.Ldebug_line0
 710 0029 02       		.uleb128 0x2
 711 002a 04       		.byte	0x4
 712 002b 05       		.byte	0x5
 713 002c 696E7400 		.ascii	"int\000"
 714 0030 03       		.uleb128 0x3
 715 0031 04       		.byte	0x4
 716 0032 07       		.byte	0x7
 717 0033 53020000 		.4byte	.LASF0
 718 0037 03       		.uleb128 0x3
 719 0038 01       		.byte	0x1
 720 0039 06       		.byte	0x6
 721 003a 0E010000 		.4byte	.LASF1
 722 003e 03       		.uleb128 0x3
 723 003f 01       		.byte	0x1
 724 0040 08       		.byte	0x8
 725 0041 0F050000 		.4byte	.LASF2
 726 0045 04       		.uleb128 0x4
 727 0046 F8000000 		.4byte	.LASF4
 728 004a 02       		.byte	0x2
 729 004b 35       		.byte	0x35
 730 004c 50000000 		.4byte	0x50
 731 0050 03       		.uleb128 0x3
ARM GAS  C:\Users\KE'OND~1\AppData\Local\Temp\ccxCzaNH.s 			page 14


 732 0051 02       		.byte	0x2
 733 0052 05       		.byte	0x5
 734 0053 2D050000 		.4byte	.LASF3
 735 0057 04       		.uleb128 0x4
 736 0058 9A010000 		.4byte	.LASF5
 737 005c 02       		.byte	0x2
 738 005d 36       		.byte	0x36
 739 005e 62000000 		.4byte	0x62
 740 0062 03       		.uleb128 0x3
 741 0063 02       		.byte	0x2
 742 0064 07       		.byte	0x7
 743 0065 F0020000 		.4byte	.LASF6
 744 0069 04       		.uleb128 0x4
 745 006a 07050000 		.4byte	.LASF7
 746 006e 02       		.byte	0x2
 747 006f 4F       		.byte	0x4f
 748 0070 74000000 		.4byte	0x74
 749 0074 03       		.uleb128 0x3
 750 0075 04       		.byte	0x4
 751 0076 05       		.byte	0x5
 752 0077 30010000 		.4byte	.LASF8
 753 007b 03       		.uleb128 0x3
 754 007c 04       		.byte	0x4
 755 007d 07       		.byte	0x7
 756 007e D6050000 		.4byte	.LASF9
 757 0082 03       		.uleb128 0x3
 758 0083 08       		.byte	0x8
 759 0084 05       		.byte	0x5
 760 0085 00010000 		.4byte	.LASF10
 761 0089 03       		.uleb128 0x3
 762 008a 08       		.byte	0x8
 763 008b 07       		.byte	0x7
 764 008c A2000000 		.4byte	.LASF11
 765 0090 04       		.uleb128 0x4
 766 0091 1A010000 		.4byte	.LASF12
 767 0095 03       		.byte	0x3
 768 0096 2B       		.byte	0x2b
 769 0097 9B000000 		.4byte	0x9b
 770 009b 03       		.uleb128 0x3
 771 009c 01       		.byte	0x1
 772 009d 02       		.byte	0x2
 773 009e 01050000 		.4byte	.LASF13
 774 00a2 03       		.uleb128 0x3
 775 00a3 04       		.byte	0x4
 776 00a4 07       		.byte	0x7
 777 00a5 26040000 		.4byte	.LASF14
 778 00a9 03       		.uleb128 0x3
 779 00aa 01       		.byte	0x1
 780 00ab 08       		.byte	0x8
 781 00ac E8050000 		.4byte	.LASF15
 782 00b0 05       		.uleb128 0x5
 783 00b1 69000000 		.4byte	0x69
 784 00b5 06       		.uleb128 0x6
 785 00b6 01       		.byte	0x1
 786 00b7 04       		.byte	0x4
 787 00b8 8D       		.byte	0x8d
 788 00b9 12010000 		.4byte	0x112
ARM GAS  C:\Users\KE'OND~1\AppData\Local\Temp\ccxCzaNH.s 			page 15


 789 00bd 07       		.uleb128 0x7
 790 00be 75010000 		.4byte	.LASF16
 791 00c2 7F       		.sleb128 -1
 792 00c3 07       		.uleb128 0x7
 793 00c4 39030000 		.4byte	.LASF17
 794 00c8 00       		.sleb128 0
 795 00c9 07       		.uleb128 0x7
 796 00ca 47030000 		.4byte	.LASF18
 797 00ce 01       		.sleb128 1
 798 00cf 07       		.uleb128 0x7
 799 00d0 55030000 		.4byte	.LASF19
 800 00d4 02       		.sleb128 2
 801 00d5 07       		.uleb128 0x7
 802 00d6 63030000 		.4byte	.LASF20
 803 00da 03       		.sleb128 3
 804 00db 07       		.uleb128 0x7
 805 00dc 71030000 		.4byte	.LASF21
 806 00e0 04       		.sleb128 4
 807 00e1 07       		.uleb128 0x7
 808 00e2 7F030000 		.4byte	.LASF22
 809 00e6 05       		.sleb128 5
 810 00e7 07       		.uleb128 0x7
 811 00e8 8D030000 		.4byte	.LASF23
 812 00ec 06       		.sleb128 6
 813 00ed 07       		.uleb128 0x7
 814 00ee 9B030000 		.4byte	.LASF24
 815 00f2 07       		.sleb128 7
 816 00f3 07       		.uleb128 0x7
 817 00f4 A9030000 		.4byte	.LASF25
 818 00f8 08       		.sleb128 8
 819 00f9 07       		.uleb128 0x7
 820 00fa 4F060000 		.4byte	.LASF26
 821 00fe 09       		.sleb128 9
 822 00ff 07       		.uleb128 0x7
 823 0100 5E060000 		.4byte	.LASF27
 824 0104 0A       		.sleb128 10
 825 0105 07       		.uleb128 0x7
 826 0106 6D060000 		.4byte	.LASF28
 827 010a 0B       		.sleb128 11
 828 010b 07       		.uleb128 0x7
 829 010c B9000000 		.4byte	.LASF29
 830 0110 0C       		.sleb128 12
 831 0111 00       		.byte	0
 832 0112 04       		.uleb128 0x4
 833 0113 92070000 		.4byte	.LASF30
 834 0117 04       		.byte	0x4
 835 0118 9D       		.byte	0x9d
 836 0119 B5000000 		.4byte	0xb5
 837 011d 06       		.uleb128 0x6
 838 011e 01       		.byte	0x1
 839 011f 04       		.byte	0x4
 840 0120 A2       		.byte	0xa2
 841 0121 32010000 		.4byte	0x132
 842 0125 07       		.uleb128 0x7
 843 0126 81070000 		.4byte	.LASF31
 844 012a 00       		.sleb128 0
 845 012b 07       		.uleb128 0x7
ARM GAS  C:\Users\KE'OND~1\AppData\Local\Temp\ccxCzaNH.s 			page 16


 846 012c 90000000 		.4byte	.LASF32
 847 0130 01       		.sleb128 1
 848 0131 00       		.byte	0
 849 0132 04       		.uleb128 0x4
 850 0133 B3010000 		.4byte	.LASF33
 851 0137 04       		.byte	0x4
 852 0138 A5       		.byte	0xa5
 853 0139 1D010000 		.4byte	0x11d
 854 013d 06       		.uleb128 0x6
 855 013e 01       		.byte	0x1
 856 013f 05       		.byte	0x5
 857 0140 39       		.byte	0x39
 858 0141 6A010000 		.4byte	0x16a
 859 0145 07       		.uleb128 0x7
 860 0146 14040000 		.4byte	.LASF34
 861 014a 00       		.sleb128 0
 862 014b 07       		.uleb128 0x7
 863 014c 96050000 		.4byte	.LASF35
 864 0150 01       		.sleb128 1
 865 0151 07       		.uleb128 0x7
 866 0152 2F040000 		.4byte	.LASF36
 867 0156 02       		.sleb128 2
 868 0157 07       		.uleb128 0x7
 869 0158 AD050000 		.4byte	.LASF37
 870 015c 03       		.sleb128 3
 871 015d 07       		.uleb128 0x7
 872 015e BF050000 		.4byte	.LASF38
 873 0162 04       		.sleb128 4
 874 0163 07       		.uleb128 0x7
 875 0164 00000000 		.4byte	.LASF39
 876 0168 05       		.sleb128 5
 877 0169 00       		.byte	0
 878 016a 04       		.uleb128 0x4
 879 016b CC060000 		.4byte	.LASF40
 880 016f 05       		.byte	0x5
 881 0170 41       		.byte	0x41
 882 0171 3D010000 		.4byte	0x13d
 883 0175 06       		.uleb128 0x6
 884 0176 01       		.byte	0x1
 885 0177 06       		.byte	0x6
 886 0178 39       		.byte	0x39
 887 0179 A2010000 		.4byte	0x1a2
 888 017d 07       		.uleb128 0x7
 889 017e 39010000 		.4byte	.LASF41
 890 0182 00       		.sleb128 0
 891 0183 07       		.uleb128 0x7
 892 0184 45010000 		.4byte	.LASF42
 893 0188 01       		.sleb128 1
 894 0189 07       		.uleb128 0x7
 895 018a 51010000 		.4byte	.LASF43
 896 018e 02       		.sleb128 2
 897 018f 07       		.uleb128 0x7
 898 0190 5D010000 		.4byte	.LASF44
 899 0194 03       		.sleb128 3
 900 0195 07       		.uleb128 0x7
 901 0196 69010000 		.4byte	.LASF45
 902 019a 04       		.sleb128 4
ARM GAS  C:\Users\KE'OND~1\AppData\Local\Temp\ccxCzaNH.s 			page 17


 903 019b 07       		.uleb128 0x7
 904 019c EE010000 		.4byte	.LASF46
 905 01a0 05       		.sleb128 5
 906 01a1 00       		.byte	0
 907 01a2 04       		.uleb128 0x4
 908 01a3 3D070000 		.4byte	.LASF47
 909 01a7 06       		.byte	0x6
 910 01a8 41       		.byte	0x41
 911 01a9 75010000 		.4byte	0x175
 912 01ad 06       		.uleb128 0x6
 913 01ae 01       		.byte	0x1
 914 01af 07       		.byte	0x7
 915 01b0 63       		.byte	0x63
 916 01b1 D4010000 		.4byte	0x1d4
 917 01b5 07       		.uleb128 0x7
 918 01b6 8E040000 		.4byte	.LASF48
 919 01ba 00       		.sleb128 0
 920 01bb 07       		.uleb128 0x7
 921 01bc 4E000000 		.4byte	.LASF49
 922 01c0 01       		.sleb128 1
 923 01c1 07       		.uleb128 0x7
 924 01c2 BD040000 		.4byte	.LASF50
 925 01c6 02       		.sleb128 2
 926 01c7 07       		.uleb128 0x7
 927 01c8 AF040000 		.4byte	.LASF51
 928 01cc 03       		.sleb128 3
 929 01cd 07       		.uleb128 0x7
 930 01ce A1040000 		.4byte	.LASF52
 931 01d2 04       		.sleb128 4
 932 01d3 00       		.byte	0
 933 01d4 04       		.uleb128 0x4
 934 01d5 E7040000 		.4byte	.LASF53
 935 01d9 07       		.byte	0x7
 936 01da 69       		.byte	0x69
 937 01db AD010000 		.4byte	0x1ad
 938 01df 06       		.uleb128 0x6
 939 01e0 01       		.byte	0x1
 940 01e1 07       		.byte	0x7
 941 01e2 6E       		.byte	0x6e
 942 01e3 30020000 		.4byte	0x230
 943 01e7 07       		.uleb128 0x7
 944 01e8 1E070000 		.4byte	.LASF54
 945 01ec 7F       		.sleb128 -1
 946 01ed 07       		.uleb128 0x7
 947 01ee 72020000 		.4byte	.LASF55
 948 01f2 00       		.sleb128 0
 949 01f3 07       		.uleb128 0x7
 950 01f4 7E020000 		.4byte	.LASF56
 951 01f8 01       		.sleb128 1
 952 01f9 07       		.uleb128 0x7
 953 01fa 8A020000 		.4byte	.LASF57
 954 01fe 02       		.sleb128 2
 955 01ff 07       		.uleb128 0x7
 956 0200 96020000 		.4byte	.LASF58
 957 0204 03       		.sleb128 3
 958 0205 07       		.uleb128 0x7
 959 0206 A2020000 		.4byte	.LASF59
ARM GAS  C:\Users\KE'OND~1\AppData\Local\Temp\ccxCzaNH.s 			page 18


 960 020a 04       		.sleb128 4
 961 020b 07       		.uleb128 0x7
 962 020c AE020000 		.4byte	.LASF60
 963 0210 05       		.sleb128 5
 964 0211 07       		.uleb128 0x7
 965 0212 BA020000 		.4byte	.LASF61
 966 0216 06       		.sleb128 6
 967 0217 07       		.uleb128 0x7
 968 0218 C6020000 		.4byte	.LASF62
 969 021c 07       		.sleb128 7
 970 021d 07       		.uleb128 0x7
 971 021e D2020000 		.4byte	.LASF63
 972 0222 08       		.sleb128 8
 973 0223 07       		.uleb128 0x7
 974 0224 C3010000 		.4byte	.LASF64
 975 0228 09       		.sleb128 9
 976 0229 07       		.uleb128 0x7
 977 022a 03030000 		.4byte	.LASF65
 978 022e 0A       		.sleb128 10
 979 022f 00       		.byte	0
 980 0230 04       		.uleb128 0x4
 981 0231 EC030000 		.4byte	.LASF66
 982 0235 07       		.byte	0x7
 983 0236 7C       		.byte	0x7c
 984 0237 DF010000 		.4byte	0x1df
 985 023b 08       		.uleb128 0x8
 986 023c 01       		.byte	0x1
 987 023d 69000000 		.4byte	0x69
 988 0241 4B020000 		.4byte	0x24b
 989 0245 09       		.uleb128 0x9
 990 0246 45000000 		.4byte	0x45
 991 024a 00       		.byte	0
 992 024b 0A       		.uleb128 0xa
 993 024c 04       		.byte	0x4
 994 024d 3B020000 		.4byte	0x23b
 995 0251 0B       		.uleb128 0xb
 996 0252 01       		.byte	0x1
 997 0253 62020000 		.4byte	0x262
 998 0257 09       		.uleb128 0x9
 999 0258 45000000 		.4byte	0x45
 1000 025c 09       		.uleb128 0x9
 1001 025d 69000000 		.4byte	0x69
 1002 0261 00       		.byte	0
 1003 0262 0A       		.uleb128 0xa
 1004 0263 04       		.byte	0x4
 1005 0264 51020000 		.4byte	0x251
 1006 0268 08       		.uleb128 0x8
 1007 0269 01       		.byte	0x1
 1008 026a 45000000 		.4byte	0x45
 1009 026e 78020000 		.4byte	0x278
 1010 0272 09       		.uleb128 0x9
 1011 0273 45000000 		.4byte	0x45
 1012 0277 00       		.byte	0
 1013 0278 0A       		.uleb128 0xa
 1014 0279 04       		.byte	0x4
 1015 027a 68020000 		.4byte	0x268
 1016 027e 06       		.uleb128 0x6
ARM GAS  C:\Users\KE'OND~1\AppData\Local\Temp\ccxCzaNH.s 			page 19


 1017 027f 01       		.byte	0x1
 1018 0280 08       		.byte	0x8
 1019 0281 46       		.byte	0x46
 1020 0282 C4020000 		.4byte	0x2c4
 1021 0286 07       		.uleb128 0x7
 1022 0287 D9040000 		.4byte	.LASF67
 1023 028b 00       		.sleb128 0
 1024 028c 07       		.uleb128 0x7
 1025 028d ED050000 		.4byte	.LASF68
 1026 0291 01       		.sleb128 1
 1027 0292 07       		.uleb128 0x7
 1028 0293 FB050000 		.4byte	.LASF69
 1029 0297 02       		.sleb128 2
 1030 0298 07       		.uleb128 0x7
 1031 0299 09060000 		.4byte	.LASF70
 1032 029d 03       		.sleb128 3
 1033 029e 07       		.uleb128 0x7
 1034 029f 17060000 		.4byte	.LASF71
 1035 02a3 04       		.sleb128 4
 1036 02a4 07       		.uleb128 0x7
 1037 02a5 25060000 		.4byte	.LASF72
 1038 02a9 05       		.sleb128 5
 1039 02aa 07       		.uleb128 0x7
 1040 02ab 33060000 		.4byte	.LASF73
 1041 02af 06       		.sleb128 6
 1042 02b0 07       		.uleb128 0x7
 1043 02b1 41060000 		.4byte	.LASF74
 1044 02b5 07       		.sleb128 7
 1045 02b6 07       		.uleb128 0x7
 1046 02b7 23020000 		.4byte	.LASF75
 1047 02bb 08       		.sleb128 8
 1048 02bc 07       		.uleb128 0x7
 1049 02bd 1D050000 		.4byte	.LASF76
 1050 02c1 E300     		.sleb128 99
 1051 02c3 00       		.byte	0
 1052 02c4 04       		.uleb128 0x4
 1053 02c5 AA060000 		.4byte	.LASF77
 1054 02c9 08       		.byte	0x8
 1055 02ca 53       		.byte	0x53
 1056 02cb 7E020000 		.4byte	0x27e
 1057 02cf 06       		.uleb128 0x6
 1058 02d0 01       		.byte	0x1
 1059 02d1 09       		.byte	0x9
 1060 02d2 3A       		.byte	0x3a
 1061 02d3 0E030000 		.4byte	0x30e
 1062 02d7 07       		.uleb128 0x7
 1063 02d8 14020000 		.4byte	.LASF78
 1064 02dc 00       		.sleb128 0
 1065 02dd 07       		.uleb128 0x7
 1066 02de 71000000 		.4byte	.LASF79
 1067 02e2 01       		.sleb128 1
 1068 02e3 07       		.uleb128 0x7
 1069 02e4 FC010000 		.4byte	.LASF80
 1070 02e8 02       		.sleb128 2
 1071 02e9 07       		.uleb128 0x7
 1072 02ea 94060000 		.4byte	.LASF81
 1073 02ee 03       		.sleb128 3
ARM GAS  C:\Users\KE'OND~1\AppData\Local\Temp\ccxCzaNH.s 			page 20


 1074 02ef 07       		.uleb128 0x7
 1075 02f0 BA060000 		.4byte	.LASF82
 1076 02f4 04       		.sleb128 4
 1077 02f5 07       		.uleb128 0x7
 1078 02f6 4E070000 		.4byte	.LASF83
 1079 02fa 05       		.sleb128 5
 1080 02fb 07       		.uleb128 0x7
 1081 02fc CB040000 		.4byte	.LASF84
 1082 0300 06       		.sleb128 6
 1083 0301 07       		.uleb128 0x7
 1084 0302 7C060000 		.4byte	.LASF85
 1085 0306 07       		.sleb128 7
 1086 0307 07       		.uleb128 0x7
 1087 0308 0A070000 		.4byte	.LASF86
 1088 030c 08       		.sleb128 8
 1089 030d 00       		.byte	0
 1090 030e 04       		.uleb128 0x4
 1091 030f 10030000 		.4byte	.LASF87
 1092 0313 09       		.byte	0x9
 1093 0314 45       		.byte	0x45
 1094 0315 CF020000 		.4byte	0x2cf
 1095 0319 06       		.uleb128 0x6
 1096 031a 01       		.byte	0x1
 1097 031b 09       		.byte	0x9
 1098 031c 50       		.byte	0x50
 1099 031d 4C030000 		.4byte	0x34c
 1100 0321 07       		.uleb128 0x7
 1101 0322 2D070000 		.4byte	.LASF88
 1102 0326 00       		.sleb128 0
 1103 0327 07       		.uleb128 0x7
 1104 0328 5B000000 		.4byte	.LASF89
 1105 032c 01       		.sleb128 1
 1106 032d 07       		.uleb128 0x7
 1107 032e 2D020000 		.4byte	.LASF90
 1108 0332 0A       		.sleb128 10
 1109 0333 07       		.uleb128 0x7
 1110 0334 40020000 		.4byte	.LASF91
 1111 0338 0B       		.sleb128 11
 1112 0339 07       		.uleb128 0x7
 1113 033a 37050000 		.4byte	.LASF92
 1114 033e 0C       		.sleb128 12
 1115 033f 07       		.uleb128 0x7
 1116 0340 02040000 		.4byte	.LASF93
 1117 0344 0D       		.sleb128 13
 1118 0345 07       		.uleb128 0x7
 1119 0346 D6000000 		.4byte	.LASF94
 1120 034a 0E       		.sleb128 14
 1121 034b 00       		.byte	0
 1122 034c 04       		.uleb128 0x4
 1123 034d 60020000 		.4byte	.LASF95
 1124 0351 09       		.byte	0x9
 1125 0352 59       		.byte	0x59
 1126 0353 19030000 		.4byte	0x319
 1127 0357 0C       		.uleb128 0xc
 1128 0358 14000000 		.4byte	.LASF99
 1129 035c 06       		.byte	0x6
 1130 035d 09       		.byte	0x9
ARM GAS  C:\Users\KE'OND~1\AppData\Local\Temp\ccxCzaNH.s 			page 21


 1131 035e 5F       		.byte	0x5f
 1132 035f 9C030000 		.4byte	0x39c
 1133 0363 0D       		.uleb128 0xd
 1134 0364 70696E00 		.ascii	"pin\000"
 1135 0368 09       		.byte	0x9
 1136 0369 60       		.byte	0x60
 1137 036a 12010000 		.4byte	0x112
 1138 036e 02       		.byte	0x2
 1139 036f 23       		.byte	0x23
 1140 0370 00       		.uleb128 0
 1141 0371 0E       		.uleb128 0xe
 1142 0372 6C000000 		.4byte	.LASF96
 1143 0376 09       		.byte	0x9
 1144 0377 61       		.byte	0x61
 1145 0378 0E030000 		.4byte	0x30e
 1146 037c 02       		.byte	0x2
 1147 037d 23       		.byte	0x23
 1148 037e 01       		.uleb128 0x1
 1149 037f 0D       		.uleb128 0xd
 1150 0380 63666700 		.ascii	"cfg\000"
 1151 0384 09       		.byte	0x9
 1152 0385 62       		.byte	0x62
 1153 0386 4C030000 		.4byte	0x34c
 1154 038a 02       		.byte	0x2
 1155 038b 23       		.byte	0x23
 1156 038c 02       		.uleb128 0x2
 1157 038d 0E       		.uleb128 0xe
 1158 038e D1050000 		.4byte	.LASF97
 1159 0392 09       		.byte	0x9
 1160 0393 63       		.byte	0x63
 1161 0394 57000000 		.4byte	0x57
 1162 0398 02       		.byte	0x2
 1163 0399 23       		.byte	0x23
 1164 039a 04       		.uleb128 0x4
 1165 039b 00       		.byte	0
 1166 039c 04       		.uleb128 0x4
 1167 039d FF060000 		.4byte	.LASF98
 1168 03a1 09       		.byte	0x9
 1169 03a2 64       		.byte	0x64
 1170 03a3 57030000 		.4byte	0x357
 1171 03a7 0C       		.uleb128 0xc
 1172 03a8 62070000 		.4byte	.LASF100
 1173 03ac 06       		.byte	0x6
 1174 03ad 09       		.byte	0x9
 1175 03ae 6F       		.byte	0x6f
 1176 03af FA030000 		.4byte	0x3fa
 1177 03b3 0E       		.uleb128 0xe
 1178 03b4 1F030000 		.4byte	.LASF101
 1179 03b8 09       		.byte	0x9
 1180 03b9 70       		.byte	0x70
 1181 03ba 30020000 		.4byte	0x230
 1182 03be 02       		.byte	0x2
 1183 03bf 23       		.byte	0x23
 1184 03c0 00       		.uleb128 0
 1185 03c1 0E       		.uleb128 0xe
 1186 03c2 E2010000 		.4byte	.LASF102
 1187 03c6 09       		.byte	0x9
ARM GAS  C:\Users\KE'OND~1\AppData\Local\Temp\ccxCzaNH.s 			page 22


 1188 03c7 71       		.byte	0x71
 1189 03c8 D4010000 		.4byte	0x1d4
 1190 03cc 02       		.byte	0x2
 1191 03cd 23       		.byte	0x23
 1192 03ce 01       		.uleb128 0x1
 1193 03cf 0E       		.uleb128 0xe
 1194 03d0 56040000 		.4byte	.LASF103
 1195 03d4 09       		.byte	0x9
 1196 03d5 72       		.byte	0x72
 1197 03d6 90000000 		.4byte	0x90
 1198 03da 02       		.byte	0x2
 1199 03db 23       		.byte	0x23
 1200 03dc 02       		.uleb128 0x2
 1201 03dd 0E       		.uleb128 0xe
 1202 03de E8010000 		.4byte	.LASF104
 1203 03e2 09       		.byte	0x9
 1204 03e3 73       		.byte	0x73
 1205 03e4 0E030000 		.4byte	0x30e
 1206 03e8 02       		.byte	0x2
 1207 03e9 23       		.byte	0x23
 1208 03ea 03       		.uleb128 0x3
 1209 03eb 0E       		.uleb128 0xe
 1210 03ec 8E050000 		.4byte	.LASF105
 1211 03f0 09       		.byte	0x9
 1212 03f1 74       		.byte	0x74
 1213 03f2 45000000 		.4byte	0x45
 1214 03f6 02       		.byte	0x2
 1215 03f7 23       		.byte	0x23
 1216 03f8 04       		.uleb128 0x4
 1217 03f9 00       		.byte	0
 1218 03fa 04       		.uleb128 0x4
 1219 03fb F6030000 		.4byte	.LASF106
 1220 03ff 09       		.byte	0x9
 1221 0400 75       		.byte	0x75
 1222 0401 A7030000 		.4byte	0x3a7
 1223 0405 0A       		.uleb128 0xa
 1224 0406 04       		.byte	0x4
 1225 0407 A9000000 		.4byte	0xa9
 1226 040b 0F       		.uleb128 0xf
 1227 040c 01       		.byte	0x1
 1228 040d 7A050000 		.4byte	.LASF115
 1229 0411 01       		.byte	0x1
 1230 0412 52       		.byte	0x52
 1231 0413 01       		.byte	0x1
 1232 0414 00000000 		.4byte	.LFB63
 1233 0418 2C010000 		.4byte	.LFE63
 1234 041c 00000000 		.4byte	.LLST0
 1235 0420 01       		.byte	0x1
 1236 0421 BF040000 		.4byte	0x4bf
 1237 0425 10       		.uleb128 0x10
 1238 0426 63666700 		.ascii	"cfg\000"
 1239 042a 01       		.byte	0x1
 1240 042b 52       		.byte	0x52
 1241 042c BF040000 		.4byte	0x4bf
 1242 0430 20000000 		.4byte	.LLST1
 1243 0434 11       		.uleb128 0x11
 1244 0435 88000000 		.4byte	.LASF107
ARM GAS  C:\Users\KE'OND~1\AppData\Local\Temp\ccxCzaNH.s 			page 23


 1245 0439 01       		.byte	0x1
 1246 043a 52       		.byte	0x52
 1247 043b 45000000 		.4byte	0x45
 1248 043f 65000000 		.4byte	.LLST2
 1249 0443 12       		.uleb128 0x12
 1250 0444 A8050000 		.4byte	.LASF108
 1251 0448 01       		.byte	0x1
 1252 0449 54       		.byte	0x54
 1253 044a BF040000 		.4byte	0x4bf
 1254 044e AA000000 		.4byte	.LLST3
 1255 0452 12       		.uleb128 0x12
 1256 0453 E0030000 		.4byte	.LASF109
 1257 0457 01       		.byte	0x1
 1258 0458 54       		.byte	0x54
 1259 0459 BF040000 		.4byte	0x4bf
 1260 045d AA000000 		.4byte	.LLST3
 1261 0461 13       		.uleb128 0x13
 1262 0462 E6030000 		.4byte	.LASF110
 1263 0466 01       		.byte	0x1
 1264 0467 54       		.byte	0x54
 1265 0468 BF040000 		.4byte	0x4bf
 1266 046c 14       		.uleb128 0x14
 1267 046d 6900     		.ascii	"i\000"
 1268 046f 01       		.byte	0x1
 1269 0470 55       		.byte	0x55
 1270 0471 12010000 		.4byte	0x112
 1271 0475 C8000000 		.4byte	.LLST5
 1272 0479 15       		.uleb128 0x15
 1273 047a 6A00     		.ascii	"j\000"
 1274 047c 01       		.byte	0x1
 1275 047d 56       		.byte	0x56
 1276 047e 12010000 		.4byte	0x112
 1277 0482 14       		.uleb128 0x14
 1278 0483 6C656E00 		.ascii	"len\000"
 1279 0487 01       		.byte	0x1
 1280 0488 57       		.byte	0x57
 1281 0489 45000000 		.4byte	0x45
 1282 048d E8000000 		.4byte	.LLST6
 1283 0491 16       		.uleb128 0x16
 1284 0492 6C000000 		.4byte	.LVL3
 1285 0496 76060000 		.4byte	0x676
 1286 049a 16       		.uleb128 0x16
 1287 049b 7C000000 		.4byte	.LVL4
 1288 049f 76060000 		.4byte	0x676
 1289 04a3 16       		.uleb128 0x16
 1290 04a4 B6000000 		.4byte	.LVL6
 1291 04a8 8F060000 		.4byte	0x68f
 1292 04ac 16       		.uleb128 0x16
 1293 04ad F8000000 		.4byte	.LVL7
 1294 04b1 AD060000 		.4byte	0x6ad
 1295 04b5 16       		.uleb128 0x16
 1296 04b6 10010000 		.4byte	.LVL8
 1297 04ba CB060000 		.4byte	0x6cb
 1298 04be 00       		.byte	0
 1299 04bf 0A       		.uleb128 0xa
 1300 04c0 04       		.byte	0x4
 1301 04c1 9C030000 		.4byte	0x39c
ARM GAS  C:\Users\KE'OND~1\AppData\Local\Temp\ccxCzaNH.s 			page 24


 1302 04c5 17       		.uleb128 0x17
 1303 04c6 01       		.byte	0x1
 1304 04c7 5F040000 		.4byte	.LASF111
 1305 04cb 01       		.byte	0x1
 1306 04cc 97       		.byte	0x97
 1307 04cd 01       		.byte	0x1
 1308 04ce 0E030000 		.4byte	0x30e
 1309 04d2 00000000 		.4byte	.LFB64
 1310 04d6 1C000000 		.4byte	.LFE64
 1311 04da 02       		.byte	0x2
 1312 04db 7D       		.byte	0x7d
 1313 04dc 00       		.sleb128 0
 1314 04dd 01       		.byte	0x1
 1315 04de F2040000 		.4byte	0x4f2
 1316 04e2 10       		.uleb128 0x10
 1317 04e3 70696E00 		.ascii	"pin\000"
 1318 04e7 01       		.byte	0x1
 1319 04e8 97       		.byte	0x97
 1320 04e9 12010000 		.4byte	0x112
 1321 04ed 06010000 		.4byte	.LLST7
 1322 04f1 00       		.byte	0
 1323 04f2 18       		.uleb128 0x18
 1324 04f3 01       		.byte	0x1
 1325 04f4 64050000 		.4byte	.LASF112
 1326 04f8 01       		.byte	0x1
 1327 04f9 A6       		.byte	0xa6
 1328 04fa 01       		.byte	0x1
 1329 04fb 05040000 		.4byte	0x405
 1330 04ff 00000000 		.4byte	.LFB65
 1331 0503 A0000000 		.4byte	.LFE65
 1332 0507 27010000 		.4byte	.LLST8
 1333 050b 01       		.byte	0x1
 1334 050c 2D050000 		.4byte	0x52d
 1335 0510 10       		.uleb128 0x10
 1336 0511 70696E00 		.ascii	"pin\000"
 1337 0515 01       		.byte	0x1
 1338 0516 A6       		.byte	0xa6
 1339 0517 12010000 		.4byte	0x112
 1340 051b 47010000 		.4byte	.LLST9
 1341 051f 14       		.uleb128 0x14
 1342 0520 7000     		.ascii	"p\000"
 1343 0522 01       		.byte	0x1
 1344 0523 A8       		.byte	0xa8
 1345 0524 05040000 		.4byte	0x405
 1346 0528 17020000 		.4byte	.LLST10
 1347 052c 00       		.byte	0
 1348 052d 17       		.uleb128 0x17
 1349 052e 01       		.byte	0x1
 1350 052f 24030000 		.4byte	.LASF113
 1351 0533 01       		.byte	0x1
 1352 0534 DA       		.byte	0xda
 1353 0535 01       		.byte	0x1
 1354 0536 57000000 		.4byte	0x57
 1355 053a 00000000 		.4byte	.LFB66
 1356 053e 1C000000 		.4byte	.LFE66
 1357 0542 02       		.byte	0x2
 1358 0543 7D       		.byte	0x7d
ARM GAS  C:\Users\KE'OND~1\AppData\Local\Temp\ccxCzaNH.s 			page 25


 1359 0544 00       		.sleb128 0
 1360 0545 01       		.byte	0x1
 1361 0546 5A050000 		.4byte	0x55a
 1362 054a 10       		.uleb128 0x10
 1363 054b 70696E00 		.ascii	"pin\000"
 1364 054f 01       		.byte	0x1
 1365 0550 DA       		.byte	0xda
 1366 0551 12010000 		.4byte	0x112
 1367 0555 57020000 		.4byte	.LLST11
 1368 0559 00       		.byte	0
 1369 055a 17       		.uleb128 0x17
 1370 055b 01       		.byte	0x1
 1371 055c 71040000 		.4byte	.LASF114
 1372 0560 01       		.byte	0x1
 1373 0561 EB       		.byte	0xeb
 1374 0562 01       		.byte	0x1
 1375 0563 57000000 		.4byte	0x57
 1376 0567 00000000 		.4byte	.LFB67
 1377 056b 1C000000 		.4byte	.LFE67
 1378 056f 02       		.byte	0x2
 1379 0570 7D       		.byte	0x7d
 1380 0571 00       		.sleb128 0
 1381 0572 01       		.byte	0x1
 1382 0573 87050000 		.4byte	0x587
 1383 0577 10       		.uleb128 0x10
 1384 0578 70696E00 		.ascii	"pin\000"
 1385 057c 01       		.byte	0x1
 1386 057d EB       		.byte	0xeb
 1387 057e 12010000 		.4byte	0x112
 1388 0582 78020000 		.4byte	.LLST12
 1389 0586 00       		.byte	0
 1390 0587 0F       		.uleb128 0xf
 1391 0588 01       		.byte	0x1
 1392 0589 6F070000 		.4byte	.LASF116
 1393 058d 01       		.byte	0x1
 1394 058e FB       		.byte	0xfb
 1395 058f 01       		.byte	0x1
 1396 0590 00000000 		.4byte	.LFB68
 1397 0594 D4000000 		.4byte	.LFE68
 1398 0598 99020000 		.4byte	.LLST13
 1399 059c 01       		.byte	0x1
 1400 059d 41060000 		.4byte	0x641
 1401 05a1 10       		.uleb128 0x10
 1402 05a2 63666700 		.ascii	"cfg\000"
 1403 05a6 01       		.byte	0x1
 1404 05a7 FB       		.byte	0xfb
 1405 05a8 41060000 		.4byte	0x641
 1406 05ac B9020000 		.4byte	.LLST14
 1407 05b0 11       		.uleb128 0x11
 1408 05b1 88000000 		.4byte	.LASF107
 1409 05b5 01       		.byte	0x1
 1410 05b6 FB       		.byte	0xfb
 1411 05b7 45000000 		.4byte	0x45
 1412 05bb DA020000 		.4byte	.LLST15
 1413 05bf 12       		.uleb128 0x12
 1414 05c0 A8050000 		.4byte	.LASF108
 1415 05c4 01       		.byte	0x1
ARM GAS  C:\Users\KE'OND~1\AppData\Local\Temp\ccxCzaNH.s 			page 26


 1416 05c5 FD       		.byte	0xfd
 1417 05c6 41060000 		.4byte	0x641
 1418 05ca FB020000 		.4byte	.LLST16
 1419 05ce 14       		.uleb128 0x14
 1420 05cf 6900     		.ascii	"i\000"
 1421 05d1 01       		.byte	0x1
 1422 05d2 FE       		.byte	0xfe
 1423 05d3 45000000 		.4byte	0x45
 1424 05d7 0E030000 		.4byte	.LLST17
 1425 05db 15       		.uleb128 0x15
 1426 05dc 6C656E00 		.ascii	"len\000"
 1427 05e0 01       		.byte	0x1
 1428 05e1 FE       		.byte	0xfe
 1429 05e2 45000000 		.4byte	0x45
 1430 05e6 16       		.uleb128 0x16
 1431 05e7 2E000000 		.4byte	.LVL40
 1432 05eb DF060000 		.4byte	0x6df
 1433 05ef 16       		.uleb128 0x16
 1434 05f0 3A000000 		.4byte	.LVL41
 1435 05f4 F8060000 		.4byte	0x6f8
 1436 05f8 16       		.uleb128 0x16
 1437 05f9 48000000 		.4byte	.LVL42
 1438 05fd 11070000 		.4byte	0x711
 1439 0601 16       		.uleb128 0x16
 1440 0602 56000000 		.4byte	.LVL43
 1441 0606 2F070000 		.4byte	0x72f
 1442 060a 16       		.uleb128 0x16
 1443 060b 64000000 		.4byte	.LVL44
 1444 060f 4D070000 		.4byte	0x74d
 1445 0613 16       		.uleb128 0x16
 1446 0614 76000000 		.4byte	.LVL45
 1447 0618 6B070000 		.4byte	0x76b
 1448 061c 16       		.uleb128 0x16
 1449 061d 82000000 		.4byte	.LVL46
 1450 0621 84070000 		.4byte	0x784
 1451 0625 16       		.uleb128 0x16
 1452 0626 98000000 		.4byte	.LVL47
 1453 062a 11070000 		.4byte	0x711
 1454 062e 16       		.uleb128 0x16
 1455 062f A6000000 		.4byte	.LVL48
 1456 0633 2F070000 		.4byte	0x72f
 1457 0637 16       		.uleb128 0x16
 1458 0638 B6000000 		.4byte	.LVL49
 1459 063c 4D070000 		.4byte	0x74d
 1460 0640 00       		.byte	0
 1461 0641 0A       		.uleb128 0xa
 1462 0642 04       		.byte	0x4
 1463 0643 FA030000 		.4byte	0x3fa
 1464 0647 19       		.uleb128 0x19
 1465 0648 9C030000 		.4byte	0x39c
 1466 064c 57060000 		.4byte	0x657
 1467 0650 1A       		.uleb128 0x1a
 1468 0651 A2000000 		.4byte	0xa2
 1469 0655 0B       		.byte	0xb
 1470 0656 00       		.byte	0
 1471 0657 1B       		.uleb128 0x1b
 1472 0658 D3030000 		.4byte	.LASF117
ARM GAS  C:\Users\KE'OND~1\AppData\Local\Temp\ccxCzaNH.s 			page 27


 1473 065c 01       		.byte	0x1
 1474 065d 3B       		.byte	0x3b
 1475 065e 47060000 		.4byte	0x647
 1476 0662 05       		.byte	0x5
 1477 0663 03       		.byte	0x3
 1478 0664 00000000 		.4byte	vexDefConfig
 1479 0668 1C       		.uleb128 0x1c
 1480 0669 C9000000 		.4byte	.LASF131
 1481 066d 0A       		.byte	0xa
 1482 066e 0706     		.2byte	0x607
 1483 0670 B0000000 		.4byte	0xb0
 1484 0674 01       		.byte	0x1
 1485 0675 01       		.byte	0x1
 1486 0676 1D       		.uleb128 0x1d
 1487 0677 01       		.byte	0x1
 1488 0678 DE020000 		.4byte	.LASF118
 1489 067c 04       		.byte	0x4
 1490 067d C1       		.byte	0xc1
 1491 067e 01       		.byte	0x1
 1492 067f 01       		.byte	0x1
 1493 0680 8F060000 		.4byte	0x68f
 1494 0684 09       		.uleb128 0x9
 1495 0685 12010000 		.4byte	0x112
 1496 0689 09       		.uleb128 0x9
 1497 068a 32010000 		.4byte	0x132
 1498 068e 00       		.byte	0
 1499 068f 1D       		.uleb128 0x1d
 1500 0690 01       		.byte	0x1
 1501 0691 EA000000 		.4byte	.LASF119
 1502 0695 05       		.byte	0x5
 1503 0696 5E       		.byte	0x5e
 1504 0697 01       		.byte	0x1
 1505 0698 01       		.byte	0x1
 1506 0699 AD060000 		.4byte	0x6ad
 1507 069d 09       		.uleb128 0x9
 1508 069e 6A010000 		.4byte	0x16a
 1509 06a2 09       		.uleb128 0x9
 1510 06a3 12010000 		.4byte	0x112
 1511 06a7 09       		.uleb128 0x9
 1512 06a8 12010000 		.4byte	0x112
 1513 06ac 00       		.byte	0
 1514 06ad 1D       		.uleb128 0x1d
 1515 06ae 01       		.byte	0x1
 1516 06af F5040000 		.4byte	.LASF120
 1517 06b3 06       		.byte	0x6
 1518 06b4 5F       		.byte	0x5f
 1519 06b5 01       		.byte	0x1
 1520 06b6 01       		.byte	0x1
 1521 06b7 CB060000 		.4byte	0x6cb
 1522 06bb 09       		.uleb128 0x9
 1523 06bc A2010000 		.4byte	0x1a2
 1524 06c0 09       		.uleb128 0x9
 1525 06c1 12010000 		.4byte	0x112
 1526 06c5 09       		.uleb128 0x9
 1527 06c6 12010000 		.4byte	0x112
 1528 06ca 00       		.byte	0
 1529 06cb 1D       		.uleb128 0x1d
ARM GAS  C:\Users\KE'OND~1\AppData\Local\Temp\ccxCzaNH.s 			page 28


 1530 06cc 01       		.byte	0x1
 1531 06cd D0010000 		.4byte	.LASF121
 1532 06d1 04       		.byte	0x4
 1533 06d2 C6       		.byte	0xc6
 1534 06d3 01       		.byte	0x1
 1535 06d4 01       		.byte	0x1
 1536 06d5 DF060000 		.4byte	0x6df
 1537 06d9 09       		.uleb128 0x9
 1538 06da 12010000 		.4byte	0x112
 1539 06de 00       		.byte	0
 1540 06df 1D       		.uleb128 0x1d
 1541 06e0 01       		.byte	0x1
 1542 06e1 21010000 		.4byte	.LASF122
 1543 06e5 08       		.byte	0x8
 1544 06e6 BA       		.byte	0xba
 1545 06e7 01       		.byte	0x1
 1546 06e8 01       		.byte	0x1
 1547 06e9 F8060000 		.4byte	0x6f8
 1548 06ed 09       		.uleb128 0x9
 1549 06ee C4020000 		.4byte	0x2c4
 1550 06f2 09       		.uleb128 0x9
 1551 06f3 30020000 		.4byte	0x230
 1552 06f7 00       		.byte	0
 1553 06f8 1D       		.uleb128 0x1d
 1554 06f9 01       		.byte	0x1
 1555 06fa 40000000 		.4byte	.LASF123
 1556 06fe 08       		.byte	0x8
 1557 06ff B9       		.byte	0xb9
 1558 0700 01       		.byte	0x1
 1559 0701 01       		.byte	0x1
 1560 0702 11070000 		.4byte	0x711
 1561 0706 09       		.uleb128 0x9
 1562 0707 C4020000 		.4byte	0x2c4
 1563 070b 09       		.uleb128 0x9
 1564 070c D4010000 		.4byte	0x1d4
 1565 0710 00       		.byte	0
 1566 0711 1D       		.uleb128 0x1d
 1567 0712 01       		.byte	0x1
 1568 0713 E3060000 		.4byte	.LASF124
 1569 0717 07       		.byte	0x7
 1570 0718 9D       		.byte	0x9d
 1571 0719 01       		.byte	0x1
 1572 071a 01       		.byte	0x1
 1573 071b 2F070000 		.4byte	0x72f
 1574 071f 09       		.uleb128 0x9
 1575 0720 45000000 		.4byte	0x45
 1576 0724 09       		.uleb128 0x9
 1577 0725 4B020000 		.4byte	0x24b
 1578 0729 09       		.uleb128 0x9
 1579 072a 45000000 		.4byte	0x45
 1580 072e 00       		.byte	0
 1581 072f 1D       		.uleb128 0x1d
 1582 0730 01       		.byte	0x1
 1583 0731 B7030000 		.4byte	.LASF125
 1584 0735 07       		.byte	0x7
 1585 0736 9E       		.byte	0x9e
 1586 0737 01       		.byte	0x1
ARM GAS  C:\Users\KE'OND~1\AppData\Local\Temp\ccxCzaNH.s 			page 29


 1587 0738 01       		.byte	0x1
 1588 0739 4D070000 		.4byte	0x74d
 1589 073d 09       		.uleb128 0x9
 1590 073e 45000000 		.4byte	0x45
 1591 0742 09       		.uleb128 0x9
 1592 0743 62020000 		.4byte	0x262
 1593 0747 09       		.uleb128 0x9
 1594 0748 45000000 		.4byte	0x45
 1595 074c 00       		.byte	0
 1596 074d 1D       		.uleb128 0x1d
 1597 074e 01       		.byte	0x1
 1598 074f 4A050000 		.4byte	.LASF126
 1599 0753 07       		.byte	0x7
 1600 0754 9F       		.byte	0x9f
 1601 0755 01       		.byte	0x1
 1602 0756 01       		.byte	0x1
 1603 0757 6B070000 		.4byte	0x76b
 1604 075b 09       		.uleb128 0x9
 1605 075c 45000000 		.4byte	0x45
 1606 0760 09       		.uleb128 0x9
 1607 0761 78020000 		.4byte	0x278
 1608 0765 09       		.uleb128 0x9
 1609 0766 45000000 		.4byte	0x45
 1610 076a 00       		.byte	0
 1611 076b 1D       		.uleb128 0x1d
 1612 076c 01       		.byte	0x1
 1613 076d A3010000 		.4byte	.LASF127
 1614 0771 07       		.byte	0x7
 1615 0772 96       		.byte	0x96
 1616 0773 01       		.byte	0x1
 1617 0774 01       		.byte	0x1
 1618 0775 84070000 		.4byte	0x784
 1619 0779 09       		.uleb128 0x9
 1620 077a 45000000 		.4byte	0x45
 1621 077e 09       		.uleb128 0x9
 1622 077f D4010000 		.4byte	0x1d4
 1623 0783 00       		.byte	0
 1624 0784 1E       		.uleb128 0x1e
 1625 0785 01       		.byte	0x1
 1626 0786 41040000 		.4byte	.LASF132
 1627 078a 07       		.byte	0x7
 1628 078b 98       		.byte	0x98
 1629 078c 01       		.byte	0x1
 1630 078d 01       		.byte	0x1
 1631 078e 09       		.uleb128 0x9
 1632 078f 45000000 		.4byte	0x45
 1633 0793 09       		.uleb128 0x9
 1634 0794 90000000 		.4byte	0x90
 1635 0798 00       		.byte	0
 1636 0799 00       		.byte	0
 1637              		.section	.debug_abbrev,"",%progbits
 1638              	.Ldebug_abbrev0:
 1639 0000 01       		.uleb128 0x1
 1640 0001 11       		.uleb128 0x11
 1641 0002 01       		.byte	0x1
 1642 0003 25       		.uleb128 0x25
 1643 0004 0E       		.uleb128 0xe
ARM GAS  C:\Users\KE'OND~1\AppData\Local\Temp\ccxCzaNH.s 			page 30


 1644 0005 13       		.uleb128 0x13
 1645 0006 0B       		.uleb128 0xb
 1646 0007 03       		.uleb128 0x3
 1647 0008 0E       		.uleb128 0xe
 1648 0009 1B       		.uleb128 0x1b
 1649 000a 0E       		.uleb128 0xe
 1650 000b 55       		.uleb128 0x55
 1651 000c 06       		.uleb128 0x6
 1652 000d 11       		.uleb128 0x11
 1653 000e 01       		.uleb128 0x1
 1654 000f 52       		.uleb128 0x52
 1655 0010 01       		.uleb128 0x1
 1656 0011 10       		.uleb128 0x10
 1657 0012 06       		.uleb128 0x6
 1658 0013 00       		.byte	0
 1659 0014 00       		.byte	0
 1660 0015 02       		.uleb128 0x2
 1661 0016 24       		.uleb128 0x24
 1662 0017 00       		.byte	0
 1663 0018 0B       		.uleb128 0xb
 1664 0019 0B       		.uleb128 0xb
 1665 001a 3E       		.uleb128 0x3e
 1666 001b 0B       		.uleb128 0xb
 1667 001c 03       		.uleb128 0x3
 1668 001d 08       		.uleb128 0x8
 1669 001e 00       		.byte	0
 1670 001f 00       		.byte	0
 1671 0020 03       		.uleb128 0x3
 1672 0021 24       		.uleb128 0x24
 1673 0022 00       		.byte	0
 1674 0023 0B       		.uleb128 0xb
 1675 0024 0B       		.uleb128 0xb
 1676 0025 3E       		.uleb128 0x3e
 1677 0026 0B       		.uleb128 0xb
 1678 0027 03       		.uleb128 0x3
 1679 0028 0E       		.uleb128 0xe
 1680 0029 00       		.byte	0
 1681 002a 00       		.byte	0
 1682 002b 04       		.uleb128 0x4
 1683 002c 16       		.uleb128 0x16
 1684 002d 00       		.byte	0
 1685 002e 03       		.uleb128 0x3
 1686 002f 0E       		.uleb128 0xe
 1687 0030 3A       		.uleb128 0x3a
 1688 0031 0B       		.uleb128 0xb
 1689 0032 3B       		.uleb128 0x3b
 1690 0033 0B       		.uleb128 0xb
 1691 0034 49       		.uleb128 0x49
 1692 0035 13       		.uleb128 0x13
 1693 0036 00       		.byte	0
 1694 0037 00       		.byte	0
 1695 0038 05       		.uleb128 0x5
 1696 0039 35       		.uleb128 0x35
 1697 003a 00       		.byte	0
 1698 003b 49       		.uleb128 0x49
 1699 003c 13       		.uleb128 0x13
 1700 003d 00       		.byte	0
ARM GAS  C:\Users\KE'OND~1\AppData\Local\Temp\ccxCzaNH.s 			page 31


 1701 003e 00       		.byte	0
 1702 003f 06       		.uleb128 0x6
 1703 0040 04       		.uleb128 0x4
 1704 0041 01       		.byte	0x1
 1705 0042 0B       		.uleb128 0xb
 1706 0043 0B       		.uleb128 0xb
 1707 0044 3A       		.uleb128 0x3a
 1708 0045 0B       		.uleb128 0xb
 1709 0046 3B       		.uleb128 0x3b
 1710 0047 0B       		.uleb128 0xb
 1711 0048 01       		.uleb128 0x1
 1712 0049 13       		.uleb128 0x13
 1713 004a 00       		.byte	0
 1714 004b 00       		.byte	0
 1715 004c 07       		.uleb128 0x7
 1716 004d 28       		.uleb128 0x28
 1717 004e 00       		.byte	0
 1718 004f 03       		.uleb128 0x3
 1719 0050 0E       		.uleb128 0xe
 1720 0051 1C       		.uleb128 0x1c
 1721 0052 0D       		.uleb128 0xd
 1722 0053 00       		.byte	0
 1723 0054 00       		.byte	0
 1724 0055 08       		.uleb128 0x8
 1725 0056 15       		.uleb128 0x15
 1726 0057 01       		.byte	0x1
 1727 0058 27       		.uleb128 0x27
 1728 0059 0C       		.uleb128 0xc
 1729 005a 49       		.uleb128 0x49
 1730 005b 13       		.uleb128 0x13
 1731 005c 01       		.uleb128 0x1
 1732 005d 13       		.uleb128 0x13
 1733 005e 00       		.byte	0
 1734 005f 00       		.byte	0
 1735 0060 09       		.uleb128 0x9
 1736 0061 05       		.uleb128 0x5
 1737 0062 00       		.byte	0
 1738 0063 49       		.uleb128 0x49
 1739 0064 13       		.uleb128 0x13
 1740 0065 00       		.byte	0
 1741 0066 00       		.byte	0
 1742 0067 0A       		.uleb128 0xa
 1743 0068 0F       		.uleb128 0xf
 1744 0069 00       		.byte	0
 1745 006a 0B       		.uleb128 0xb
 1746 006b 0B       		.uleb128 0xb
 1747 006c 49       		.uleb128 0x49
 1748 006d 13       		.uleb128 0x13
 1749 006e 00       		.byte	0
 1750 006f 00       		.byte	0
 1751 0070 0B       		.uleb128 0xb
 1752 0071 15       		.uleb128 0x15
 1753 0072 01       		.byte	0x1
 1754 0073 27       		.uleb128 0x27
 1755 0074 0C       		.uleb128 0xc
 1756 0075 01       		.uleb128 0x1
 1757 0076 13       		.uleb128 0x13
ARM GAS  C:\Users\KE'OND~1\AppData\Local\Temp\ccxCzaNH.s 			page 32


 1758 0077 00       		.byte	0
 1759 0078 00       		.byte	0
 1760 0079 0C       		.uleb128 0xc
 1761 007a 13       		.uleb128 0x13
 1762 007b 01       		.byte	0x1
 1763 007c 03       		.uleb128 0x3
 1764 007d 0E       		.uleb128 0xe
 1765 007e 0B       		.uleb128 0xb
 1766 007f 0B       		.uleb128 0xb
 1767 0080 3A       		.uleb128 0x3a
 1768 0081 0B       		.uleb128 0xb
 1769 0082 3B       		.uleb128 0x3b
 1770 0083 0B       		.uleb128 0xb
 1771 0084 01       		.uleb128 0x1
 1772 0085 13       		.uleb128 0x13
 1773 0086 00       		.byte	0
 1774 0087 00       		.byte	0
 1775 0088 0D       		.uleb128 0xd
 1776 0089 0D       		.uleb128 0xd
 1777 008a 00       		.byte	0
 1778 008b 03       		.uleb128 0x3
 1779 008c 08       		.uleb128 0x8
 1780 008d 3A       		.uleb128 0x3a
 1781 008e 0B       		.uleb128 0xb
 1782 008f 3B       		.uleb128 0x3b
 1783 0090 0B       		.uleb128 0xb
 1784 0091 49       		.uleb128 0x49
 1785 0092 13       		.uleb128 0x13
 1786 0093 38       		.uleb128 0x38
 1787 0094 0A       		.uleb128 0xa
 1788 0095 00       		.byte	0
 1789 0096 00       		.byte	0
 1790 0097 0E       		.uleb128 0xe
 1791 0098 0D       		.uleb128 0xd
 1792 0099 00       		.byte	0
 1793 009a 03       		.uleb128 0x3
 1794 009b 0E       		.uleb128 0xe
 1795 009c 3A       		.uleb128 0x3a
 1796 009d 0B       		.uleb128 0xb
 1797 009e 3B       		.uleb128 0x3b
 1798 009f 0B       		.uleb128 0xb
 1799 00a0 49       		.uleb128 0x49
 1800 00a1 13       		.uleb128 0x13
 1801 00a2 38       		.uleb128 0x38
 1802 00a3 0A       		.uleb128 0xa
 1803 00a4 00       		.byte	0
 1804 00a5 00       		.byte	0
 1805 00a6 0F       		.uleb128 0xf
 1806 00a7 2E       		.uleb128 0x2e
 1807 00a8 01       		.byte	0x1
 1808 00a9 3F       		.uleb128 0x3f
 1809 00aa 0C       		.uleb128 0xc
 1810 00ab 03       		.uleb128 0x3
 1811 00ac 0E       		.uleb128 0xe
 1812 00ad 3A       		.uleb128 0x3a
 1813 00ae 0B       		.uleb128 0xb
 1814 00af 3B       		.uleb128 0x3b
ARM GAS  C:\Users\KE'OND~1\AppData\Local\Temp\ccxCzaNH.s 			page 33


 1815 00b0 0B       		.uleb128 0xb
 1816 00b1 27       		.uleb128 0x27
 1817 00b2 0C       		.uleb128 0xc
 1818 00b3 11       		.uleb128 0x11
 1819 00b4 01       		.uleb128 0x1
 1820 00b5 12       		.uleb128 0x12
 1821 00b6 01       		.uleb128 0x1
 1822 00b7 40       		.uleb128 0x40
 1823 00b8 06       		.uleb128 0x6
 1824 00b9 9742     		.uleb128 0x2117
 1825 00bb 0C       		.uleb128 0xc
 1826 00bc 01       		.uleb128 0x1
 1827 00bd 13       		.uleb128 0x13
 1828 00be 00       		.byte	0
 1829 00bf 00       		.byte	0
 1830 00c0 10       		.uleb128 0x10
 1831 00c1 05       		.uleb128 0x5
 1832 00c2 00       		.byte	0
 1833 00c3 03       		.uleb128 0x3
 1834 00c4 08       		.uleb128 0x8
 1835 00c5 3A       		.uleb128 0x3a
 1836 00c6 0B       		.uleb128 0xb
 1837 00c7 3B       		.uleb128 0x3b
 1838 00c8 0B       		.uleb128 0xb
 1839 00c9 49       		.uleb128 0x49
 1840 00ca 13       		.uleb128 0x13
 1841 00cb 02       		.uleb128 0x2
 1842 00cc 06       		.uleb128 0x6
 1843 00cd 00       		.byte	0
 1844 00ce 00       		.byte	0
 1845 00cf 11       		.uleb128 0x11
 1846 00d0 05       		.uleb128 0x5
 1847 00d1 00       		.byte	0
 1848 00d2 03       		.uleb128 0x3
 1849 00d3 0E       		.uleb128 0xe
 1850 00d4 3A       		.uleb128 0x3a
 1851 00d5 0B       		.uleb128 0xb
 1852 00d6 3B       		.uleb128 0x3b
 1853 00d7 0B       		.uleb128 0xb
 1854 00d8 49       		.uleb128 0x49
 1855 00d9 13       		.uleb128 0x13
 1856 00da 02       		.uleb128 0x2
 1857 00db 06       		.uleb128 0x6
 1858 00dc 00       		.byte	0
 1859 00dd 00       		.byte	0
 1860 00de 12       		.uleb128 0x12
 1861 00df 34       		.uleb128 0x34
 1862 00e0 00       		.byte	0
 1863 00e1 03       		.uleb128 0x3
 1864 00e2 0E       		.uleb128 0xe
 1865 00e3 3A       		.uleb128 0x3a
 1866 00e4 0B       		.uleb128 0xb
 1867 00e5 3B       		.uleb128 0x3b
 1868 00e6 0B       		.uleb128 0xb
 1869 00e7 49       		.uleb128 0x49
 1870 00e8 13       		.uleb128 0x13
 1871 00e9 02       		.uleb128 0x2
ARM GAS  C:\Users\KE'OND~1\AppData\Local\Temp\ccxCzaNH.s 			page 34


 1872 00ea 06       		.uleb128 0x6
 1873 00eb 00       		.byte	0
 1874 00ec 00       		.byte	0
 1875 00ed 13       		.uleb128 0x13
 1876 00ee 34       		.uleb128 0x34
 1877 00ef 00       		.byte	0
 1878 00f0 03       		.uleb128 0x3
 1879 00f1 0E       		.uleb128 0xe
 1880 00f2 3A       		.uleb128 0x3a
 1881 00f3 0B       		.uleb128 0xb
 1882 00f4 3B       		.uleb128 0x3b
 1883 00f5 0B       		.uleb128 0xb
 1884 00f6 49       		.uleb128 0x49
 1885 00f7 13       		.uleb128 0x13
 1886 00f8 00       		.byte	0
 1887 00f9 00       		.byte	0
 1888 00fa 14       		.uleb128 0x14
 1889 00fb 34       		.uleb128 0x34
 1890 00fc 00       		.byte	0
 1891 00fd 03       		.uleb128 0x3
 1892 00fe 08       		.uleb128 0x8
 1893 00ff 3A       		.uleb128 0x3a
 1894 0100 0B       		.uleb128 0xb
 1895 0101 3B       		.uleb128 0x3b
 1896 0102 0B       		.uleb128 0xb
 1897 0103 49       		.uleb128 0x49
 1898 0104 13       		.uleb128 0x13
 1899 0105 02       		.uleb128 0x2
 1900 0106 06       		.uleb128 0x6
 1901 0107 00       		.byte	0
 1902 0108 00       		.byte	0
 1903 0109 15       		.uleb128 0x15
 1904 010a 34       		.uleb128 0x34
 1905 010b 00       		.byte	0
 1906 010c 03       		.uleb128 0x3
 1907 010d 08       		.uleb128 0x8
 1908 010e 3A       		.uleb128 0x3a
 1909 010f 0B       		.uleb128 0xb
 1910 0110 3B       		.uleb128 0x3b
 1911 0111 0B       		.uleb128 0xb
 1912 0112 49       		.uleb128 0x49
 1913 0113 13       		.uleb128 0x13
 1914 0114 00       		.byte	0
 1915 0115 00       		.byte	0
 1916 0116 16       		.uleb128 0x16
 1917 0117 898201   		.uleb128 0x4109
 1918 011a 00       		.byte	0
 1919 011b 11       		.uleb128 0x11
 1920 011c 01       		.uleb128 0x1
 1921 011d 31       		.uleb128 0x31
 1922 011e 13       		.uleb128 0x13
 1923 011f 00       		.byte	0
 1924 0120 00       		.byte	0
 1925 0121 17       		.uleb128 0x17
 1926 0122 2E       		.uleb128 0x2e
 1927 0123 01       		.byte	0x1
 1928 0124 3F       		.uleb128 0x3f
ARM GAS  C:\Users\KE'OND~1\AppData\Local\Temp\ccxCzaNH.s 			page 35


 1929 0125 0C       		.uleb128 0xc
 1930 0126 03       		.uleb128 0x3
 1931 0127 0E       		.uleb128 0xe
 1932 0128 3A       		.uleb128 0x3a
 1933 0129 0B       		.uleb128 0xb
 1934 012a 3B       		.uleb128 0x3b
 1935 012b 0B       		.uleb128 0xb
 1936 012c 27       		.uleb128 0x27
 1937 012d 0C       		.uleb128 0xc
 1938 012e 49       		.uleb128 0x49
 1939 012f 13       		.uleb128 0x13
 1940 0130 11       		.uleb128 0x11
 1941 0131 01       		.uleb128 0x1
 1942 0132 12       		.uleb128 0x12
 1943 0133 01       		.uleb128 0x1
 1944 0134 40       		.uleb128 0x40
 1945 0135 0A       		.uleb128 0xa
 1946 0136 9742     		.uleb128 0x2117
 1947 0138 0C       		.uleb128 0xc
 1948 0139 01       		.uleb128 0x1
 1949 013a 13       		.uleb128 0x13
 1950 013b 00       		.byte	0
 1951 013c 00       		.byte	0
 1952 013d 18       		.uleb128 0x18
 1953 013e 2E       		.uleb128 0x2e
 1954 013f 01       		.byte	0x1
 1955 0140 3F       		.uleb128 0x3f
 1956 0141 0C       		.uleb128 0xc
 1957 0142 03       		.uleb128 0x3
 1958 0143 0E       		.uleb128 0xe
 1959 0144 3A       		.uleb128 0x3a
 1960 0145 0B       		.uleb128 0xb
 1961 0146 3B       		.uleb128 0x3b
 1962 0147 0B       		.uleb128 0xb
 1963 0148 27       		.uleb128 0x27
 1964 0149 0C       		.uleb128 0xc
 1965 014a 49       		.uleb128 0x49
 1966 014b 13       		.uleb128 0x13
 1967 014c 11       		.uleb128 0x11
 1968 014d 01       		.uleb128 0x1
 1969 014e 12       		.uleb128 0x12
 1970 014f 01       		.uleb128 0x1
 1971 0150 40       		.uleb128 0x40
 1972 0151 06       		.uleb128 0x6
 1973 0152 9742     		.uleb128 0x2117
 1974 0154 0C       		.uleb128 0xc
 1975 0155 01       		.uleb128 0x1
 1976 0156 13       		.uleb128 0x13
 1977 0157 00       		.byte	0
 1978 0158 00       		.byte	0
 1979 0159 19       		.uleb128 0x19
 1980 015a 01       		.uleb128 0x1
 1981 015b 01       		.byte	0x1
 1982 015c 49       		.uleb128 0x49
 1983 015d 13       		.uleb128 0x13
 1984 015e 01       		.uleb128 0x1
 1985 015f 13       		.uleb128 0x13
ARM GAS  C:\Users\KE'OND~1\AppData\Local\Temp\ccxCzaNH.s 			page 36


 1986 0160 00       		.byte	0
 1987 0161 00       		.byte	0
 1988 0162 1A       		.uleb128 0x1a
 1989 0163 21       		.uleb128 0x21
 1990 0164 00       		.byte	0
 1991 0165 49       		.uleb128 0x49
 1992 0166 13       		.uleb128 0x13
 1993 0167 2F       		.uleb128 0x2f
 1994 0168 0B       		.uleb128 0xb
 1995 0169 00       		.byte	0
 1996 016a 00       		.byte	0
 1997 016b 1B       		.uleb128 0x1b
 1998 016c 34       		.uleb128 0x34
 1999 016d 00       		.byte	0
 2000 016e 03       		.uleb128 0x3
 2001 016f 0E       		.uleb128 0xe
 2002 0170 3A       		.uleb128 0x3a
 2003 0171 0B       		.uleb128 0xb
 2004 0172 3B       		.uleb128 0x3b
 2005 0173 0B       		.uleb128 0xb
 2006 0174 49       		.uleb128 0x49
 2007 0175 13       		.uleb128 0x13
 2008 0176 02       		.uleb128 0x2
 2009 0177 0A       		.uleb128 0xa
 2010 0178 00       		.byte	0
 2011 0179 00       		.byte	0
 2012 017a 1C       		.uleb128 0x1c
 2013 017b 34       		.uleb128 0x34
 2014 017c 00       		.byte	0
 2015 017d 03       		.uleb128 0x3
 2016 017e 0E       		.uleb128 0xe
 2017 017f 3A       		.uleb128 0x3a
 2018 0180 0B       		.uleb128 0xb
 2019 0181 3B       		.uleb128 0x3b
 2020 0182 05       		.uleb128 0x5
 2021 0183 49       		.uleb128 0x49
 2022 0184 13       		.uleb128 0x13
 2023 0185 3F       		.uleb128 0x3f
 2024 0186 0C       		.uleb128 0xc
 2025 0187 3C       		.uleb128 0x3c
 2026 0188 0C       		.uleb128 0xc
 2027 0189 00       		.byte	0
 2028 018a 00       		.byte	0
 2029 018b 1D       		.uleb128 0x1d
 2030 018c 2E       		.uleb128 0x2e
 2031 018d 01       		.byte	0x1
 2032 018e 3F       		.uleb128 0x3f
 2033 018f 0C       		.uleb128 0xc
 2034 0190 03       		.uleb128 0x3
 2035 0191 0E       		.uleb128 0xe
 2036 0192 3A       		.uleb128 0x3a
 2037 0193 0B       		.uleb128 0xb
 2038 0194 3B       		.uleb128 0x3b
 2039 0195 0B       		.uleb128 0xb
 2040 0196 27       		.uleb128 0x27
 2041 0197 0C       		.uleb128 0xc
 2042 0198 3C       		.uleb128 0x3c
ARM GAS  C:\Users\KE'OND~1\AppData\Local\Temp\ccxCzaNH.s 			page 37


 2043 0199 0C       		.uleb128 0xc
 2044 019a 01       		.uleb128 0x1
 2045 019b 13       		.uleb128 0x13
 2046 019c 00       		.byte	0
 2047 019d 00       		.byte	0
 2048 019e 1E       		.uleb128 0x1e
 2049 019f 2E       		.uleb128 0x2e
 2050 01a0 01       		.byte	0x1
 2051 01a1 3F       		.uleb128 0x3f
 2052 01a2 0C       		.uleb128 0xc
 2053 01a3 03       		.uleb128 0x3
 2054 01a4 0E       		.uleb128 0xe
 2055 01a5 3A       		.uleb128 0x3a
 2056 01a6 0B       		.uleb128 0xb
 2057 01a7 3B       		.uleb128 0x3b
 2058 01a8 0B       		.uleb128 0xb
 2059 01a9 27       		.uleb128 0x27
 2060 01aa 0C       		.uleb128 0xc
 2061 01ab 3C       		.uleb128 0x3c
 2062 01ac 0C       		.uleb128 0xc
 2063 01ad 00       		.byte	0
 2064 01ae 00       		.byte	0
 2065 01af 00       		.byte	0
 2066              		.section	.debug_loc,"",%progbits
 2067              	.Ldebug_loc0:
 2068              	.LLST0:
 2069 0000 00000000 		.4byte	.LFB63
 2070 0004 04000000 		.4byte	.LCFI0
 2071 0008 0200     		.2byte	0x2
 2072 000a 7D       		.byte	0x7d
 2073 000b 00       		.sleb128 0
 2074 000c 04000000 		.4byte	.LCFI0
 2075 0010 2C010000 		.4byte	.LFE63
 2076 0014 0200     		.2byte	0x2
 2077 0016 7D       		.byte	0x7d
 2078 0017 20       		.sleb128 32
 2079 0018 00000000 		.4byte	0
 2080 001c 00000000 		.4byte	0
 2081              	.LLST1:
 2082 0020 00000000 		.4byte	.LVL0
 2083 0024 14000000 		.4byte	.LVL2
 2084 0028 0100     		.2byte	0x1
 2085 002a 50       		.byte	0x50
 2086 002b 14000000 		.4byte	.LVL2
 2087 002f 1A010000 		.4byte	.LVL9
 2088 0033 0400     		.2byte	0x4
 2089 0035 F3       		.byte	0xf3
 2090 0036 01       		.uleb128 0x1
 2091 0037 50       		.byte	0x50
 2092 0038 9F       		.byte	0x9f
 2093 0039 1A010000 		.4byte	.LVL9
 2094 003d 20010000 		.4byte	.LVL11
 2095 0041 0100     		.2byte	0x1
 2096 0043 50       		.byte	0x50
 2097 0044 20010000 		.4byte	.LVL11
 2098 0048 22010000 		.4byte	.LVL12
 2099 004c 0400     		.2byte	0x4
ARM GAS  C:\Users\KE'OND~1\AppData\Local\Temp\ccxCzaNH.s 			page 38


 2100 004e F3       		.byte	0xf3
 2101 004f 01       		.uleb128 0x1
 2102 0050 50       		.byte	0x50
 2103 0051 9F       		.byte	0x9f
 2104 0052 22010000 		.4byte	.LVL12
 2105 0056 2C010000 		.4byte	.LFE63
 2106 005a 0100     		.2byte	0x1
 2107 005c 50       		.byte	0x50
 2108 005d 00000000 		.4byte	0
 2109 0061 00000000 		.4byte	0
 2110              	.LLST2:
 2111 0065 00000000 		.4byte	.LVL0
 2112 0069 14000000 		.4byte	.LVL2
 2113 006d 0100     		.2byte	0x1
 2114 006f 51       		.byte	0x51
 2115 0070 14000000 		.4byte	.LVL2
 2116 0074 1A010000 		.4byte	.LVL9
 2117 0078 0400     		.2byte	0x4
 2118 007a F3       		.byte	0xf3
 2119 007b 01       		.uleb128 0x1
 2120 007c 51       		.byte	0x51
 2121 007d 9F       		.byte	0x9f
 2122 007e 1A010000 		.4byte	.LVL9
 2123 0082 1E010000 		.4byte	.LVL10
 2124 0086 0100     		.2byte	0x1
 2125 0088 51       		.byte	0x51
 2126 0089 1E010000 		.4byte	.LVL10
 2127 008d 22010000 		.4byte	.LVL12
 2128 0091 0400     		.2byte	0x4
 2129 0093 F3       		.byte	0xf3
 2130 0094 01       		.uleb128 0x1
 2131 0095 51       		.byte	0x51
 2132 0096 9F       		.byte	0x9f
 2133 0097 22010000 		.4byte	.LVL12
 2134 009b 2C010000 		.4byte	.LFE63
 2135 009f 0100     		.2byte	0x1
 2136 00a1 51       		.byte	0x51
 2137 00a2 00000000 		.4byte	0
 2138 00a6 00000000 		.4byte	0
 2139              	.LLST3:
 2140 00aa 0A000000 		.4byte	.LVL1
 2141 00ae 14000000 		.4byte	.LVL2
 2142 00b2 0100     		.2byte	0x1
 2143 00b4 50       		.byte	0x50
 2144 00b5 22010000 		.4byte	.LVL12
 2145 00b9 2C010000 		.4byte	.LFE63
 2146 00bd 0100     		.2byte	0x1
 2147 00bf 50       		.byte	0x50
 2148 00c0 00000000 		.4byte	0
 2149 00c4 00000000 		.4byte	0
 2150              	.LLST5:
 2151 00c8 0A000000 		.4byte	.LVL1
 2152 00cc 14000000 		.4byte	.LVL2
 2153 00d0 0200     		.2byte	0x2
 2154 00d2 30       		.byte	0x30
 2155 00d3 9F       		.byte	0x9f
 2156 00d4 22010000 		.4byte	.LVL12
ARM GAS  C:\Users\KE'OND~1\AppData\Local\Temp\ccxCzaNH.s 			page 39


 2157 00d8 2C010000 		.4byte	.LFE63
 2158 00dc 0200     		.2byte	0x2
 2159 00de 30       		.byte	0x30
 2160 00df 9F       		.byte	0x9f
 2161 00e0 00000000 		.4byte	0
 2162 00e4 00000000 		.4byte	0
 2163              	.LLST6:
 2164 00e8 0A000000 		.4byte	.LVL1
 2165 00ec 14000000 		.4byte	.LVL2
 2166 00f0 0100     		.2byte	0x1
 2167 00f2 51       		.byte	0x51
 2168 00f3 22010000 		.4byte	.LVL12
 2169 00f7 2C010000 		.4byte	.LFE63
 2170 00fb 0100     		.2byte	0x1
 2171 00fd 51       		.byte	0x51
 2172 00fe 00000000 		.4byte	0
 2173 0102 00000000 		.4byte	0
 2174              	.LLST7:
 2175 0106 00000000 		.4byte	.LVL13
 2176 010a 0A000000 		.4byte	.LVL14
 2177 010e 0100     		.2byte	0x1
 2178 0110 50       		.byte	0x50
 2179 0111 0A000000 		.4byte	.LVL14
 2180 0115 1C000000 		.4byte	.LFE64
 2181 0119 0400     		.2byte	0x4
 2182 011b F3       		.byte	0xf3
 2183 011c 01       		.uleb128 0x1
 2184 011d 50       		.byte	0x50
 2185 011e 9F       		.byte	0x9f
 2186 011f 00000000 		.4byte	0
 2187 0123 00000000 		.4byte	0
 2188              	.LLST8:
 2189 0127 00000000 		.4byte	.LFB65
 2190 012b 04000000 		.4byte	.LCFI1
 2191 012f 0200     		.2byte	0x2
 2192 0131 7D       		.byte	0x7d
 2193 0132 00       		.sleb128 0
 2194 0133 04000000 		.4byte	.LCFI1
 2195 0137 A0000000 		.4byte	.LFE65
 2196 013b 0200     		.2byte	0x2
 2197 013d 7D       		.byte	0x7d
 2198 013e 04       		.sleb128 4
 2199 013f 00000000 		.4byte	0
 2200 0143 00000000 		.4byte	0
 2201              	.LLST9:
 2202 0147 00000000 		.4byte	.LVL15
 2203 014b 26000000 		.4byte	.LVL17
 2204 014f 0100     		.2byte	0x1
 2205 0151 50       		.byte	0x50
 2206 0152 26000000 		.4byte	.LVL17
 2207 0156 2A000000 		.4byte	.LVL18
 2208 015a 0400     		.2byte	0x4
 2209 015c F3       		.byte	0xf3
 2210 015d 01       		.uleb128 0x1
 2211 015e 50       		.byte	0x50
 2212 015f 9F       		.byte	0x9f
 2213 0160 2A000000 		.4byte	.LVL18
ARM GAS  C:\Users\KE'OND~1\AppData\Local\Temp\ccxCzaNH.s 			page 40


 2214 0164 2C000000 		.4byte	.LVL19
 2215 0168 0100     		.2byte	0x1
 2216 016a 50       		.byte	0x50
 2217 016b 2C000000 		.4byte	.LVL19
 2218 016f 2E000000 		.4byte	.LVL20
 2219 0173 0400     		.2byte	0x4
 2220 0175 F3       		.byte	0xf3
 2221 0176 01       		.uleb128 0x1
 2222 0177 50       		.byte	0x50
 2223 0178 9F       		.byte	0x9f
 2224 0179 2E000000 		.4byte	.LVL20
 2225 017d 30000000 		.4byte	.LVL21
 2226 0181 0100     		.2byte	0x1
 2227 0183 50       		.byte	0x50
 2228 0184 30000000 		.4byte	.LVL21
 2229 0188 32000000 		.4byte	.LVL22
 2230 018c 0400     		.2byte	0x4
 2231 018e F3       		.byte	0xf3
 2232 018f 01       		.uleb128 0x1
 2233 0190 50       		.byte	0x50
 2234 0191 9F       		.byte	0x9f
 2235 0192 32000000 		.4byte	.LVL22
 2236 0196 34000000 		.4byte	.LVL23
 2237 019a 0100     		.2byte	0x1
 2238 019c 50       		.byte	0x50
 2239 019d 34000000 		.4byte	.LVL23
 2240 01a1 36000000 		.4byte	.LVL24
 2241 01a5 0400     		.2byte	0x4
 2242 01a7 F3       		.byte	0xf3
 2243 01a8 01       		.uleb128 0x1
 2244 01a9 50       		.byte	0x50
 2245 01aa 9F       		.byte	0x9f
 2246 01ab 36000000 		.4byte	.LVL24
 2247 01af 38000000 		.4byte	.LVL25
 2248 01b3 0100     		.2byte	0x1
 2249 01b5 50       		.byte	0x50
 2250 01b6 38000000 		.4byte	.LVL25
 2251 01ba 4C000000 		.4byte	.LVL26
 2252 01be 0400     		.2byte	0x4
 2253 01c0 F3       		.byte	0xf3
 2254 01c1 01       		.uleb128 0x1
 2255 01c2 50       		.byte	0x50
 2256 01c3 9F       		.byte	0x9f
 2257 01c4 4C000000 		.4byte	.LVL26
 2258 01c8 4E000000 		.4byte	.LVL27
 2259 01cc 0100     		.2byte	0x1
 2260 01ce 50       		.byte	0x50
 2261 01cf 4E000000 		.4byte	.LVL27
 2262 01d3 62000000 		.4byte	.LVL28
 2263 01d7 0400     		.2byte	0x4
 2264 01d9 F3       		.byte	0xf3
 2265 01da 01       		.uleb128 0x1
 2266 01db 50       		.byte	0x50
 2267 01dc 9F       		.byte	0x9f
 2268 01dd 62000000 		.4byte	.LVL28
 2269 01e1 64000000 		.4byte	.LVL29
 2270 01e5 0100     		.2byte	0x1
ARM GAS  C:\Users\KE'OND~1\AppData\Local\Temp\ccxCzaNH.s 			page 41


 2271 01e7 50       		.byte	0x50
 2272 01e8 64000000 		.4byte	.LVL29
 2273 01ec 78000000 		.4byte	.LVL30
 2274 01f0 0400     		.2byte	0x4
 2275 01f2 F3       		.byte	0xf3
 2276 01f3 01       		.uleb128 0x1
 2277 01f4 50       		.byte	0x50
 2278 01f5 9F       		.byte	0x9f
 2279 01f6 78000000 		.4byte	.LVL30
 2280 01fa 7A000000 		.4byte	.LVL31
 2281 01fe 0100     		.2byte	0x1
 2282 0200 50       		.byte	0x50
 2283 0201 7A000000 		.4byte	.LVL31
 2284 0205 A0000000 		.4byte	.LFE65
 2285 0209 0400     		.2byte	0x4
 2286 020b F3       		.byte	0xf3
 2287 020c 01       		.uleb128 0x1
 2288 020d 50       		.byte	0x50
 2289 020e 9F       		.byte	0x9f
 2290 020f 00000000 		.4byte	0
 2291 0213 00000000 		.4byte	0
 2292              	.LLST10:
 2293 0217 00000000 		.4byte	.LVL15
 2294 021b 24000000 		.4byte	.LVL16
 2295 021f 0200     		.2byte	0x2
 2296 0221 30       		.byte	0x30
 2297 0222 9F       		.byte	0x9f
 2298 0223 24000000 		.4byte	.LVL16
 2299 0227 26000000 		.4byte	.LVL17
 2300 022b 0600     		.2byte	0x6
 2301 022d 03       		.byte	0x3
 2302 022e 38000000 		.4byte	.LC7
 2303 0232 9F       		.byte	0x9f
 2304 0233 2A000000 		.4byte	.LVL18
 2305 0237 2E000000 		.4byte	.LVL20
 2306 023b 0600     		.2byte	0x6
 2307 023d 03       		.byte	0x3
 2308 023e 28000000 		.4byte	.LC5
 2309 0242 9F       		.byte	0x9f
 2310 0243 2E000000 		.4byte	.LVL20
 2311 0247 A0000000 		.4byte	.LFE65
 2312 024b 0200     		.2byte	0x2
 2313 024d 30       		.byte	0x30
 2314 024e 9F       		.byte	0x9f
 2315 024f 00000000 		.4byte	0
 2316 0253 00000000 		.4byte	0
 2317              	.LLST11:
 2318 0257 00000000 		.4byte	.LVL32
 2319 025b 0A000000 		.4byte	.LVL33
 2320 025f 0100     		.2byte	0x1
 2321 0261 50       		.byte	0x50
 2322 0262 0A000000 		.4byte	.LVL33
 2323 0266 1C000000 		.4byte	.LFE66
 2324 026a 0400     		.2byte	0x4
 2325 026c F3       		.byte	0xf3
 2326 026d 01       		.uleb128 0x1
 2327 026e 50       		.byte	0x50
ARM GAS  C:\Users\KE'OND~1\AppData\Local\Temp\ccxCzaNH.s 			page 42


 2328 026f 9F       		.byte	0x9f
 2329 0270 00000000 		.4byte	0
 2330 0274 00000000 		.4byte	0
 2331              	.LLST12:
 2332 0278 00000000 		.4byte	.LVL34
 2333 027c 0A000000 		.4byte	.LVL35
 2334 0280 0100     		.2byte	0x1
 2335 0282 50       		.byte	0x50
 2336 0283 0A000000 		.4byte	.LVL35
 2337 0287 1C000000 		.4byte	.LFE67
 2338 028b 0400     		.2byte	0x4
 2339 028d F3       		.byte	0xf3
 2340 028e 01       		.uleb128 0x1
 2341 028f 50       		.byte	0x50
 2342 0290 9F       		.byte	0x9f
 2343 0291 00000000 		.4byte	0
 2344 0295 00000000 		.4byte	0
 2345              	.LLST13:
 2346 0299 00000000 		.4byte	.LFB68
 2347 029d 02000000 		.4byte	.LCFI2
 2348 02a1 0200     		.2byte	0x2
 2349 02a3 7D       		.byte	0x7d
 2350 02a4 00       		.sleb128 0
 2351 02a5 02000000 		.4byte	.LCFI2
 2352 02a9 D4000000 		.4byte	.LFE68
 2353 02ad 0200     		.2byte	0x2
 2354 02af 7D       		.byte	0x7d
 2355 02b0 10       		.sleb128 16
 2356 02b1 00000000 		.4byte	0
 2357 02b5 00000000 		.4byte	0
 2358              	.LLST14:
 2359 02b9 00000000 		.4byte	.LVL36
 2360 02bd 1E000000 		.4byte	.LVL39
 2361 02c1 0100     		.2byte	0x1
 2362 02c3 50       		.byte	0x50
 2363 02c4 1E000000 		.4byte	.LVL39
 2364 02c8 D4000000 		.4byte	.LFE68
 2365 02cc 0400     		.2byte	0x4
 2366 02ce F3       		.byte	0xf3
 2367 02cf 01       		.uleb128 0x1
 2368 02d0 50       		.byte	0x50
 2369 02d1 9F       		.byte	0x9f
 2370 02d2 00000000 		.4byte	0
 2371 02d6 00000000 		.4byte	0
 2372              	.LLST15:
 2373 02da 00000000 		.4byte	.LVL36
 2374 02de 0C000000 		.4byte	.LVL38
 2375 02e2 0100     		.2byte	0x1
 2376 02e4 51       		.byte	0x51
 2377 02e5 0C000000 		.4byte	.LVL38
 2378 02e9 D4000000 		.4byte	.LFE68
 2379 02ed 0400     		.2byte	0x4
 2380 02ef F3       		.byte	0xf3
 2381 02f0 01       		.uleb128 0x1
 2382 02f1 51       		.byte	0x51
 2383 02f2 9F       		.byte	0x9f
 2384 02f3 00000000 		.4byte	0
ARM GAS  C:\Users\KE'OND~1\AppData\Local\Temp\ccxCzaNH.s 			page 43


 2385 02f7 00000000 		.4byte	0
 2386              	.LLST16:
 2387 02fb 06000000 		.4byte	.LVL37
 2388 02ff 1E000000 		.4byte	.LVL39
 2389 0303 0100     		.2byte	0x1
 2390 0305 50       		.byte	0x50
 2391 0306 00000000 		.4byte	0
 2392 030a 00000000 		.4byte	0
 2393              	.LLST17:
 2394 030e 06000000 		.4byte	.LVL37
 2395 0312 1E000000 		.4byte	.LVL39
 2396 0316 0200     		.2byte	0x2
 2397 0318 30       		.byte	0x30
 2398 0319 9F       		.byte	0x9f
 2399 031a 00000000 		.4byte	0
 2400 031e 00000000 		.4byte	0
 2401              		.section	.debug_aranges,"",%progbits
 2402 0000 44000000 		.4byte	0x44
 2403 0004 0200     		.2byte	0x2
 2404 0006 00000000 		.4byte	.Ldebug_info0
 2405 000a 04       		.byte	0x4
 2406 000b 00       		.byte	0
 2407 000c 0000     		.2byte	0
 2408 000e 0000     		.2byte	0
 2409 0010 00000000 		.4byte	.LFB63
 2410 0014 2C010000 		.4byte	.LFE63-.LFB63
 2411 0018 00000000 		.4byte	.LFB64
 2412 001c 1C000000 		.4byte	.LFE64-.LFB64
 2413 0020 00000000 		.4byte	.LFB65
 2414 0024 A0000000 		.4byte	.LFE65-.LFB65
 2415 0028 00000000 		.4byte	.LFB66
 2416 002c 1C000000 		.4byte	.LFE66-.LFB66
 2417 0030 00000000 		.4byte	.LFB67
 2418 0034 1C000000 		.4byte	.LFE67-.LFB67
 2419 0038 00000000 		.4byte	.LFB68
 2420 003c D4000000 		.4byte	.LFE68-.LFB68
 2421 0040 00000000 		.4byte	0
 2422 0044 00000000 		.4byte	0
 2423              		.section	.debug_ranges,"",%progbits
 2424              	.Ldebug_ranges0:
 2425 0000 00000000 		.4byte	.LFB63
 2426 0004 2C010000 		.4byte	.LFE63
 2427 0008 00000000 		.4byte	.LFB64
 2428 000c 1C000000 		.4byte	.LFE64
 2429 0010 00000000 		.4byte	.LFB65
 2430 0014 A0000000 		.4byte	.LFE65
 2431 0018 00000000 		.4byte	.LFB66
 2432 001c 1C000000 		.4byte	.LFE66
 2433 0020 00000000 		.4byte	.LFB67
 2434 0024 1C000000 		.4byte	.LFE67
 2435 0028 00000000 		.4byte	.LFB68
 2436 002c D4000000 		.4byte	.LFE68
 2437 0030 00000000 		.4byte	0
 2438 0034 00000000 		.4byte	0
 2439              		.section	.debug_line,"",%progbits
 2440              	.Ldebug_line0:
 2441 0000 35020000 		.section	.debug_str,"MS",%progbits,1
ARM GAS  C:\Users\KE'OND~1\AppData\Local\Temp\ccxCzaNH.s 			page 44


 2441      02004B01 
 2441      00000201 
 2441      FB0E0D00 
 2441      01010101 
 2442              	.LASF39:
 2443 0000 6B566578 		.ascii	"kVexQuadEncoder_Num\000"
 2443      51756164 
 2443      456E636F 
 2443      6465725F 
 2443      4E756D00 
 2444              	.LASF99:
 2445 0014 5F766578 		.ascii	"_vexDigiCfg\000"
 2445      44696769 
 2445      43666700 
 2446              	.LASF129:
 2447 0020 2E2E2F63 		.ascii	"../convex/cortex/fw/vexconfig.c\000"
 2447      6F6E7665 
 2447      782F636F 
 2447      72746578 
 2447      2F66772F 
 2448              	.LASF123:
 2449 0040 76657849 		.ascii	"vexImeSetType\000"
 2449      6D655365 
 2449      74547970 
 2449      6500
 2450              	.LASF49:
 2451 004e 6B566578 		.ascii	"kVexMotor269\000"
 2451      4D6F746F 
 2451      72323639 
 2451      00
 2452              	.LASF89:
 2453 005b 6B566578 		.ascii	"kVexConfigOutput\000"
 2453      436F6E66 
 2453      69674F75 
 2453      74707574 
 2453      00
 2454              	.LASF96:
 2455 006c 74797065 		.ascii	"type\000"
 2455      00
 2456              	.LASF79:
 2457 0071 6B566578 		.ascii	"kVexSensorDigitalInput\000"
 2457      53656E73 
 2457      6F724469 
 2457      67697461 
 2457      6C496E70 
 2458              	.LASF107:
 2459 0088 6366675F 		.ascii	"cfg_num\000"
 2459      6E756D00 
 2460              	.LASF32:
 2461 0090 6B566578 		.ascii	"kVexDigitalOutput\000"
 2461      44696769 
 2461      74616C4F 
 2461      75747075 
 2461      7400
 2462              	.LASF11:
 2463 00a2 6C6F6E67 		.ascii	"long long unsigned int\000"
 2463      206C6F6E 
ARM GAS  C:\Users\KE'OND~1\AppData\Local\Temp\ccxCzaNH.s 			page 45


 2463      6720756E 
 2463      7369676E 
 2463      65642069 
 2464              	.LASF29:
 2465 00b9 6B566578 		.ascii	"kVexDigital_Num\000"
 2465      44696769 
 2465      74616C5F 
 2465      4E756D00 
 2466              	.LASF131:
 2467 00c9 49544D5F 		.ascii	"ITM_RxBuffer\000"
 2467      52784275 
 2467      66666572 
 2467      00
 2468              	.LASF94:
 2469 00d6 6B566578 		.ascii	"kVexConfigInterrupt\000"
 2469      436F6E66 
 2469      6967496E 
 2469      74657272 
 2469      75707400 
 2470              	.LASF119:
 2471 00ea 76657845 		.ascii	"vexEncoderAdd\000"
 2471      6E636F64 
 2471      65724164 
 2471      6400
 2472              	.LASF4:
 2473 00f8 696E7431 		.ascii	"int16_t\000"
 2473      365F7400 
 2474              	.LASF10:
 2475 0100 6C6F6E67 		.ascii	"long long int\000"
 2475      206C6F6E 
 2475      6720696E 
 2475      7400
 2476              	.LASF1:
 2477 010e 7369676E 		.ascii	"signed char\000"
 2477      65642063 
 2477      68617200 
 2478              	.LASF12:
 2479 011a 626F6F6C 		.ascii	"bool_t\000"
 2479      5F7400
 2480              	.LASF122:
 2481 0121 76657849 		.ascii	"vexImeSetMotor\000"
 2481      6D655365 
 2481      744D6F74 
 2481      6F7200
 2482              	.LASF8:
 2483 0130 6C6F6E67 		.ascii	"long int\000"
 2483      20696E74 
 2483      00
 2484              	.LASF41:
 2485 0139 6B566578 		.ascii	"kVexSonar_1\000"
 2485      536F6E61 
 2485      725F3100 
 2486              	.LASF42:
 2487 0145 6B566578 		.ascii	"kVexSonar_2\000"
 2487      536F6E61 
 2487      725F3200 
 2488              	.LASF43:
ARM GAS  C:\Users\KE'OND~1\AppData\Local\Temp\ccxCzaNH.s 			page 46


 2489 0151 6B566578 		.ascii	"kVexSonar_3\000"
 2489      536F6E61 
 2489      725F3300 
 2490              	.LASF44:
 2491 015d 6B566578 		.ascii	"kVexSonar_4\000"
 2491      536F6E61 
 2491      725F3400 
 2492              	.LASF45:
 2493 0169 6B566578 		.ascii	"kVexSonar_5\000"
 2493      536F6E61 
 2493      725F3500 
 2494              	.LASF16:
 2495 0175 6B566578 		.ascii	"kVexDigital_None\000"
 2495      44696769 
 2495      74616C5F 
 2495      4E6F6E65 
 2495      00
 2496              	.LASF130:
 2497 0186 433A5C70 		.ascii	"C:\\projects\\KBot5.0\000"
 2497      726F6A65 
 2497      6374735C 
 2497      4B426F74 
 2497      352E3000 
 2498              	.LASF5:
 2499 019a 75696E74 		.ascii	"uint16_t\000"
 2499      31365F74 
 2499      00
 2500              	.LASF127:
 2501 01a3 7665784D 		.ascii	"vexMotorTypeSet\000"
 2501      6F746F72 
 2501      54797065 
 2501      53657400 
 2502              	.LASF33:
 2503 01b3 74566578 		.ascii	"tVexDigitalMode\000"
 2503      44696769 
 2503      74616C4D 
 2503      6F646500 
 2504              	.LASF64:
 2505 01c3 6B566578 		.ascii	"kVexMotor_10\000"
 2505      4D6F746F 
 2505      725F3130 
 2505      00
 2506              	.LASF121:
 2507 01d0 76657844 		.ascii	"vexDigitalIntrSet\000"
 2507      69676974 
 2507      616C496E 
 2507      74725365 
 2507      7400
 2508              	.LASF102:
 2509 01e2 6D747970 		.ascii	"mtype\000"
 2509      6500
 2510              	.LASF104:
 2511 01e8 73747970 		.ascii	"stype\000"
 2511      6500
 2512              	.LASF46:
 2513 01ee 6B566578 		.ascii	"kVexSonar_Num\000"
 2513      536F6E61 
ARM GAS  C:\Users\KE'OND~1\AppData\Local\Temp\ccxCzaNH.s 			page 47


 2513      725F4E75 
 2513      6D00
 2514              	.LASF80:
 2515 01fc 6B566578 		.ascii	"kVexSensorDigitalOutput\000"
 2515      53656E73 
 2515      6F724469 
 2515      67697461 
 2515      6C4F7574 
 2516              	.LASF78:
 2517 0214 6B566578 		.ascii	"kVexSensorNone\000"
 2517      53656E73 
 2517      6F724E6F 
 2517      6E6500
 2518              	.LASF75:
 2519 0223 6B496D65 		.ascii	"kImeTotal\000"
 2519      546F7461 
 2519      6C00
 2520              	.LASF90:
 2521 022d 6B566578 		.ascii	"kVexConfigQuadEnc1\000"
 2521      436F6E66 
 2521      69675175 
 2521      6164456E 
 2521      633100
 2522              	.LASF91:
 2523 0240 6B566578 		.ascii	"kVexConfigQuadEnc2\000"
 2523      436F6E66 
 2523      69675175 
 2523      6164456E 
 2523      633200
 2524              	.LASF0:
 2525 0253 756E7369 		.ascii	"unsigned int\000"
 2525      676E6564 
 2525      20696E74 
 2525      00
 2526              	.LASF95:
 2527 0260 74566578 		.ascii	"tVexDigitalConfig\000"
 2527      44696769 
 2527      74616C43 
 2527      6F6E6669 
 2527      6700
 2528              	.LASF55:
 2529 0272 6B566578 		.ascii	"kVexMotor_1\000"
 2529      4D6F746F 
 2529      725F3100 
 2530              	.LASF56:
 2531 027e 6B566578 		.ascii	"kVexMotor_2\000"
 2531      4D6F746F 
 2531      725F3200 
 2532              	.LASF57:
 2533 028a 6B566578 		.ascii	"kVexMotor_3\000"
 2533      4D6F746F 
 2533      725F3300 
 2534              	.LASF58:
 2535 0296 6B566578 		.ascii	"kVexMotor_4\000"
 2535      4D6F746F 
 2535      725F3400 
 2536              	.LASF59:
ARM GAS  C:\Users\KE'OND~1\AppData\Local\Temp\ccxCzaNH.s 			page 48


 2537 02a2 6B566578 		.ascii	"kVexMotor_5\000"
 2537      4D6F746F 
 2537      725F3500 
 2538              	.LASF60:
 2539 02ae 6B566578 		.ascii	"kVexMotor_6\000"
 2539      4D6F746F 
 2539      725F3600 
 2540              	.LASF61:
 2541 02ba 6B566578 		.ascii	"kVexMotor_7\000"
 2541      4D6F746F 
 2541      725F3700 
 2542              	.LASF62:
 2543 02c6 6B566578 		.ascii	"kVexMotor_8\000"
 2543      4D6F746F 
 2543      725F3800 
 2544              	.LASF63:
 2545 02d2 6B566578 		.ascii	"kVexMotor_9\000"
 2545      4D6F746F 
 2545      725F3900 
 2546              	.LASF118:
 2547 02de 76657844 		.ascii	"vexDigitalModeSet\000"
 2547      69676974 
 2547      616C4D6F 
 2547      64655365 
 2547      7400
 2548              	.LASF6:
 2549 02f0 73686F72 		.ascii	"short unsigned int\000"
 2549      7420756E 
 2549      7369676E 
 2549      65642069 
 2549      6E7400
 2550              	.LASF65:
 2551 0303 6B566578 		.ascii	"kVexMotorNum\000"
 2551      4D6F746F 
 2551      724E756D 
 2551      00
 2552              	.LASF87:
 2553 0310 74566578 		.ascii	"tVexSensorType\000"
 2553      53656E73 
 2553      6F725479 
 2553      706500
 2554              	.LASF101:
 2555 031f 706F7274 		.ascii	"port\000"
 2555      00
 2556              	.LASF113:
 2557 0324 76657844 		.ascii	"vexDigitalChannelGet\000"
 2557      69676974 
 2557      616C4368 
 2557      616E6E65 
 2557      6C476574 
 2558              	.LASF17:
 2559 0339 6B566578 		.ascii	"kVexDigital_1\000"
 2559      44696769 
 2559      74616C5F 
 2559      3100
 2560              	.LASF18:
 2561 0347 6B566578 		.ascii	"kVexDigital_2\000"
ARM GAS  C:\Users\KE'OND~1\AppData\Local\Temp\ccxCzaNH.s 			page 49


 2561      44696769 
 2561      74616C5F 
 2561      3200
 2562              	.LASF19:
 2563 0355 6B566578 		.ascii	"kVexDigital_3\000"
 2563      44696769 
 2563      74616C5F 
 2563      3300
 2564              	.LASF20:
 2565 0363 6B566578 		.ascii	"kVexDigital_4\000"
 2565      44696769 
 2565      74616C5F 
 2565      3400
 2566              	.LASF21:
 2567 0371 6B566578 		.ascii	"kVexDigital_5\000"
 2567      44696769 
 2567      74616C5F 
 2567      3500
 2568              	.LASF22:
 2569 037f 6B566578 		.ascii	"kVexDigital_6\000"
 2569      44696769 
 2569      74616C5F 
 2569      3600
 2570              	.LASF23:
 2571 038d 6B566578 		.ascii	"kVexDigital_7\000"
 2571      44696769 
 2571      74616C5F 
 2571      3700
 2572              	.LASF24:
 2573 039b 6B566578 		.ascii	"kVexDigital_8\000"
 2573      44696769 
 2573      74616C5F 
 2573      3800
 2574              	.LASF25:
 2575 03a9 6B566578 		.ascii	"kVexDigital_9\000"
 2575      44696769 
 2575      74616C5F 
 2575      3900
 2576              	.LASF125:
 2577 03b7 7665784D 		.ascii	"vexMotorPositionSetCallback\000"
 2577      6F746F72 
 2577      506F7369 
 2577      74696F6E 
 2577      53657443 
 2578              	.LASF117:
 2579 03d3 76657844 		.ascii	"vexDefConfig\000"
 2579      6566436F 
 2579      6E666967 
 2579      00
 2580              	.LASF109:
 2581 03e0 5F636667 		.ascii	"_cfg1\000"
 2581      3100
 2582              	.LASF110:
 2583 03e6 5F636667 		.ascii	"_cfg2\000"
 2583      3200
 2584              	.LASF66:
 2585 03ec 74566578 		.ascii	"tVexMotor\000"
ARM GAS  C:\Users\KE'OND~1\AppData\Local\Temp\ccxCzaNH.s 			page 50


 2585      4D6F746F 
 2585      7200
 2586              	.LASF106:
 2587 03f6 7665784D 		.ascii	"vexMotorCfg\000"
 2587      6F746F72 
 2587      43666700 
 2588              	.LASF93:
 2589 0402 6B566578 		.ascii	"kVexConfigSonarIn\000"
 2589      436F6E66 
 2589      6967536F 
 2589      6E617249 
 2589      6E00
 2590              	.LASF34:
 2591 0414 6B566578 		.ascii	"kVexQuadEncoder_1\000"
 2591      51756164 
 2591      456E636F 
 2591      6465725F 
 2591      3100
 2592              	.LASF14:
 2593 0426 73697A65 		.ascii	"sizetype\000"
 2593      74797065 
 2593      00
 2594              	.LASF36:
 2595 042f 6B566578 		.ascii	"kVexQuadEncoder_3\000"
 2595      51756164 
 2595      456E636F 
 2595      6465725F 
 2595      3300
 2596              	.LASF132:
 2597 0441 7665784D 		.ascii	"vexMotorDirectionSet\000"
 2597      6F746F72 
 2597      44697265 
 2597      6374696F 
 2597      6E536574 
 2598              	.LASF103:
 2599 0456 72657665 		.ascii	"reversed\000"
 2599      72736564 
 2599      00
 2600              	.LASF111:
 2601 045f 76657844 		.ascii	"vexDigitalTypeGet\000"
 2601      69676974 
 2601      616C5479 
 2601      70654765 
 2601      7400
 2602              	.LASF114:
 2603 0471 76657844 		.ascii	"vexDigitalCfgGet\000"
 2603      69676974 
 2603      616C4366 
 2603      67476574 
 2603      00
 2604              	.LASF128:
 2605 0482 474E5520 		.ascii	"GNU C 4.7.2\000"
 2605      4320342E 
 2605      372E3200 
 2606              	.LASF48:
 2607 048e 6B566578 		.ascii	"kVexMotorUndefined\000"
 2607      4D6F746F 
ARM GAS  C:\Users\KE'OND~1\AppData\Local\Temp\ccxCzaNH.s 			page 51


 2607      72556E64 
 2607      6566696E 
 2607      656400
 2608              	.LASF52:
 2609 04a1 6B566578 		.ascii	"kVexMotor393R\000"
 2609      4D6F746F 
 2609      72333933 
 2609      5200
 2610              	.LASF51:
 2611 04af 6B566578 		.ascii	"kVexMotor393S\000"
 2611      4D6F746F 
 2611      72333933 
 2611      5300
 2612              	.LASF50:
 2613 04bd 6B566578 		.ascii	"kVexMotor393T\000"
 2613      4D6F746F 
 2613      72333933 
 2613      5400
 2614              	.LASF84:
 2615 04cb 6B566578 		.ascii	"kVexSensorIME\000"
 2615      53656E73 
 2615      6F72494D 
 2615      4500
 2616              	.LASF67:
 2617 04d9 6B496D65 		.ascii	"kImeChannel_1\000"
 2617      4368616E 
 2617      6E656C5F 
 2617      3100
 2618              	.LASF53:
 2619 04e7 74566578 		.ascii	"tVexMotorType\000"
 2619      4D6F746F 
 2619      72547970 
 2619      6500
 2620              	.LASF120:
 2621 04f5 76657853 		.ascii	"vexSonarAdd\000"
 2621      6F6E6172 
 2621      41646400 
 2622              	.LASF13:
 2623 0501 5F426F6F 		.ascii	"_Bool\000"
 2623      6C00
 2624              	.LASF7:
 2625 0507 696E7433 		.ascii	"int32_t\000"
 2625      325F7400 
 2626              	.LASF2:
 2627 050f 756E7369 		.ascii	"unsigned char\000"
 2627      676E6564 
 2627      20636861 
 2627      7200
 2628              	.LASF76:
 2629 051d 6B496D65 		.ascii	"kImeChannelNone\000"
 2629      4368616E 
 2629      6E656C4E 
 2629      6F6E6500 
 2630              	.LASF3:
 2631 052d 73686F72 		.ascii	"short int\000"
 2631      7420696E 
 2631      7400
ARM GAS  C:\Users\KE'OND~1\AppData\Local\Temp\ccxCzaNH.s 			page 52


 2632              	.LASF92:
 2633 0537 6B566578 		.ascii	"kVexConfigSonarOut\000"
 2633      436F6E66 
 2633      6967536F 
 2633      6E61724F 
 2633      757400
 2634              	.LASF126:
 2635 054a 7665784D 		.ascii	"vexMotorEncoderIdCallback\000"
 2635      6F746F72 
 2635      456E636F 
 2635      64657249 
 2635      6443616C 
 2636              	.LASF112:
 2637 0564 76657844 		.ascii	"vexDigitalTypeGetName\000"
 2637      69676974 
 2637      616C5479 
 2637      70654765 
 2637      744E616D 
 2638              	.LASF115:
 2639 057a 76657844 		.ascii	"vexDigitalConfigure\000"
 2639      69676974 
 2639      616C436F 
 2639      6E666967 
 2639      75726500 
 2640              	.LASF105:
 2641 058e 6368616E 		.ascii	"channel\000"
 2641      6E656C00 
 2642              	.LASF35:
 2643 0596 6B566578 		.ascii	"kVexQuadEncoder_2\000"
 2643      51756164 
 2643      456E636F 
 2643      6465725F 
 2643      3200
 2644              	.LASF108:
 2645 05a8 5F636667 		.ascii	"_cfg\000"
 2645      00
 2646              	.LASF37:
 2647 05ad 6B566578 		.ascii	"kVexQuadEncoder_4\000"
 2647      51756164 
 2647      456E636F 
 2647      6465725F 
 2647      3400
 2648              	.LASF38:
 2649 05bf 6B566578 		.ascii	"kVexQuadEncoder_5\000"
 2649      51756164 
 2649      456E636F 
 2649      6465725F 
 2649      3500
 2650              	.LASF97:
 2651 05d1 6368616E 		.ascii	"chan\000"
 2651      00
 2652              	.LASF9:
 2653 05d6 6C6F6E67 		.ascii	"long unsigned int\000"
 2653      20756E73 
 2653      69676E65 
 2653      6420696E 
 2653      7400
ARM GAS  C:\Users\KE'OND~1\AppData\Local\Temp\ccxCzaNH.s 			page 53


 2654              	.LASF15:
 2655 05e8 63686172 		.ascii	"char\000"
 2655      00
 2656              	.LASF68:
 2657 05ed 6B496D65 		.ascii	"kImeChannel_2\000"
 2657      4368616E 
 2657      6E656C5F 
 2657      3200
 2658              	.LASF69:
 2659 05fb 6B496D65 		.ascii	"kImeChannel_3\000"
 2659      4368616E 
 2659      6E656C5F 
 2659      3300
 2660              	.LASF70:
 2661 0609 6B496D65 		.ascii	"kImeChannel_4\000"
 2661      4368616E 
 2661      6E656C5F 
 2661      3400
 2662              	.LASF71:
 2663 0617 6B496D65 		.ascii	"kImeChannel_5\000"
 2663      4368616E 
 2663      6E656C5F 
 2663      3500
 2664              	.LASF72:
 2665 0625 6B496D65 		.ascii	"kImeChannel_6\000"
 2665      4368616E 
 2665      6E656C5F 
 2665      3600
 2666              	.LASF73:
 2667 0633 6B496D65 		.ascii	"kImeChannel_7\000"
 2667      4368616E 
 2667      6E656C5F 
 2667      3700
 2668              	.LASF74:
 2669 0641 6B496D65 		.ascii	"kImeChannel_8\000"
 2669      4368616E 
 2669      6E656C5F 
 2669      3800
 2670              	.LASF26:
 2671 064f 6B566578 		.ascii	"kVexDigital_10\000"
 2671      44696769 
 2671      74616C5F 
 2671      313000
 2672              	.LASF27:
 2673 065e 6B566578 		.ascii	"kVexDigital_11\000"
 2673      44696769 
 2673      74616C5F 
 2673      313100
 2674              	.LASF28:
 2675 066d 6B566578 		.ascii	"kVexDigital_12\000"
 2675      44696769 
 2675      74616C5F 
 2675      313200
 2676              	.LASF85:
 2677 067c 6B566578 		.ascii	"kVexSensorPotentiometer\000"
 2677      53656E73 
 2677      6F72506F 
ARM GAS  C:\Users\KE'OND~1\AppData\Local\Temp\ccxCzaNH.s 			page 54


 2677      74656E74 
 2677      696F6D65 
 2678              	.LASF81:
 2679 0694 6B566578 		.ascii	"kVexSensorQuadEncoder\000"
 2679      53656E73 
 2679      6F725175 
 2679      6164456E 
 2679      636F6465 
 2680              	.LASF77:
 2681 06aa 74566578 		.ascii	"tVexImeChannels\000"
 2681      496D6543 
 2681      68616E6E 
 2681      656C7300 
 2682              	.LASF82:
 2683 06ba 6B566578 		.ascii	"kVexSensorSonarCm\000"
 2683      53656E73 
 2683      6F72536F 
 2683      6E617243 
 2683      6D00
 2684              	.LASF40:
 2685 06cc 74566578 		.ascii	"tVexQuadEncoderChannel\000"
 2685      51756164 
 2685      456E636F 
 2685      64657243 
 2685      68616E6E 
 2686              	.LASF124:
 2687 06e3 7665784D 		.ascii	"vexMotorPositionGetCallback\000"
 2687      6F746F72 
 2687      506F7369 
 2687      74696F6E 
 2687      47657443 
 2688              	.LASF98:
 2689 06ff 76657844 		.ascii	"vexDigiCfg\000"
 2689      69676943 
 2689      666700
 2690              	.LASF86:
 2691 070a 6B566578 		.ascii	"kVexSensorInterrupt\000"
 2691      53656E73 
 2691      6F72496E 
 2691      74657272 
 2691      75707400 
 2692              	.LASF54:
 2693 071e 6B566578 		.ascii	"kVexMotor_None\000"
 2693      4D6F746F 
 2693      725F4E6F 
 2693      6E6500
 2694              	.LASF88:
 2695 072d 6B566578 		.ascii	"kVexConfigInput\000"
 2695      436F6E66 
 2695      6967496E 
 2695      70757400 
 2696              	.LASF47:
 2697 073d 74566578 		.ascii	"tVexSonarChannel\000"
 2697      536F6E61 
 2697      72436861 
 2697      6E6E656C 
 2697      00
ARM GAS  C:\Users\KE'OND~1\AppData\Local\Temp\ccxCzaNH.s 			page 55


 2698              	.LASF83:
 2699 074e 6B566578 		.ascii	"kVexSensorSonarInch\000"
 2699      53656E73 
 2699      6F72536F 
 2699      6E617249 
 2699      6E636800 
 2700              	.LASF100:
 2701 0762 5F766578 		.ascii	"_vexMotorCfg\000"
 2701      4D6F746F 
 2701      72436667 
 2701      00
 2702              	.LASF116:
 2703 076f 7665784D 		.ascii	"vexMotorConfigure\000"
 2703      6F746F72 
 2703      436F6E66 
 2703      69677572 
 2703      6500
 2704              	.LASF31:
 2705 0781 6B566578 		.ascii	"kVexDigitalInput\000"
 2705      44696769 
 2705      74616C49 
 2705      6E707574 
 2705      00
 2706              	.LASF30:
 2707 0792 74566578 		.ascii	"tVexDigitalPin\000"
 2707      44696769 
 2707      74616C50 
 2707      696E00
 2708              		.ident	"GCC: (GNU) 4.7.2"
ARM GAS  C:\Users\KE'OND~1\AppData\Local\Temp\ccxCzaNH.s 			page 56


DEFINED SYMBOLS
                            *ABS*:00000000 vexconfig.c
C:\Users\KE'OND~1\AppData\Local\Temp\ccxCzaNH.s:19     .text.vexDigitalConfigure:00000000 $t
C:\Users\KE'OND~1\AppData\Local\Temp\ccxCzaNH.s:25     .text.vexDigitalConfigure:00000000 vexDigitalConfigure
C:\Users\KE'OND~1\AppData\Local\Temp\ccxCzaNH.s:220    .text.vexDigitalConfigure:00000128 $d
C:\Users\KE'OND~1\AppData\Local\Temp\ccxCzaNH.s:225    .text.vexDigitalTypeGet:00000000 $t
C:\Users\KE'OND~1\AppData\Local\Temp\ccxCzaNH.s:231    .text.vexDigitalTypeGet:00000000 vexDigitalTypeGet
C:\Users\KE'OND~1\AppData\Local\Temp\ccxCzaNH.s:256    .text.vexDigitalTypeGet:00000018 $d
C:\Users\KE'OND~1\AppData\Local\Temp\ccxCzaNH.s:261    .text.vexDigitalTypeGetName:00000000 $t
C:\Users\KE'OND~1\AppData\Local\Temp\ccxCzaNH.s:267    .text.vexDigitalTypeGetName:00000000 vexDigitalTypeGetName
C:\Users\KE'OND~1\AppData\Local\Temp\ccxCzaNH.s:295    .text.vexDigitalTypeGetName:0000001c $d
C:\Users\KE'OND~1\AppData\Local\Temp\ccxCzaNH.s:303    .text.vexDigitalTypeGetName:00000024 $t
C:\Users\KE'OND~1\AppData\Local\Temp\ccxCzaNH.s:386    .text.vexDigitalTypeGetName:0000007c $d
C:\Users\KE'OND~1\AppData\Local\Temp\ccxCzaNH.s:399    .text.vexDigitalChannelGet:00000000 $t
C:\Users\KE'OND~1\AppData\Local\Temp\ccxCzaNH.s:405    .text.vexDigitalChannelGet:00000000 vexDigitalChannelGet
C:\Users\KE'OND~1\AppData\Local\Temp\ccxCzaNH.s:430    .text.vexDigitalChannelGet:00000018 $d
C:\Users\KE'OND~1\AppData\Local\Temp\ccxCzaNH.s:435    .text.vexDigitalCfgGet:00000000 $t
C:\Users\KE'OND~1\AppData\Local\Temp\ccxCzaNH.s:441    .text.vexDigitalCfgGet:00000000 vexDigitalCfgGet
C:\Users\KE'OND~1\AppData\Local\Temp\ccxCzaNH.s:466    .text.vexDigitalCfgGet:00000018 $d
C:\Users\KE'OND~1\AppData\Local\Temp\ccxCzaNH.s:471    .text.vexMotorConfigure:00000000 $t
C:\Users\KE'OND~1\AppData\Local\Temp\ccxCzaNH.s:477    .text.vexMotorConfigure:00000000 vexMotorConfigure
C:\Users\KE'OND~1\AppData\Local\Temp\ccxCzaNH.s:587    .text.vexMotorConfigure:000000bc $d
C:\Users\KE'OND~1\AppData\Local\Temp\ccxCzaNH.s:597    .data.vexDefConfig:00000000 $d
C:\Users\KE'OND~1\AppData\Local\Temp\ccxCzaNH.s:601    .data.vexDefConfig:00000000 vexDefConfig
C:\Users\KE'OND~1\AppData\Local\Temp\ccxCzaNH.s:663    .rodata.str1.4:00000000 $d
                     .debug_frame:00000010 $d
C:\Users\KE'OND~1\AppData\Local\Temp\ccxCzaNH.s:224    .text.vexDigitalConfigure:0000012c $t
C:\Users\KE'OND~1\AppData\Local\Temp\ccxCzaNH.s:260    .text.vexDigitalTypeGet:0000001c $t
C:\Users\KE'OND~1\AppData\Local\Temp\ccxCzaNH.s:434    .text.vexDigitalChannelGet:0000001c $t
C:\Users\KE'OND~1\AppData\Local\Temp\ccxCzaNH.s:470    .text.vexDigitalCfgGet:0000001c $t
C:\Users\KE'OND~1\AppData\Local\Temp\ccxCzaNH.s:596    .text.vexMotorConfigure:000000d4 $t

UNDEFINED SYMBOLS
vexDigitalModeSet
vexEncoderAdd
vexSonarAdd
vexDigitalIntrSet
vexImeSetMotor
vexImeSetType
vexMotorPositionGetCallback
vexMotorPositionSetCallback
vexMotorEncoderIdCallback
vexMotorTypeSet
vexMotorDirectionSet
vexImeGetCount
vexImeSetCount
vexImeGetId
vexEncoderGet
vexEncoderSet
vexEncoderGetId
