ARM GAS  C:\Users\KE'OND~1\AppData\Local\Temp\ccwyzsgk.s 			page 1


   1              		.syntax unified
   2              		.cpu cortex-m3
   3              		.fpu softvfp
   4              		.eabi_attribute 20, 1
   5              		.eabi_attribute 21, 1
   6              		.eabi_attribute 23, 3
   7              		.eabi_attribute 24, 1
   8              		.eabi_attribute 25, 1
   9              		.eabi_attribute 26, 1
  10              		.eabi_attribute 30, 2
  11              		.eabi_attribute 34, 1
  12              		.eabi_attribute 18, 4
  13              		.thumb
  14              		.file	"vexmotor.c"
  15              		.text
  16              	.Ltext0:
  17              		.cfi_sections	.debug_frame
  18              		.section	.text.vexMotorSet,"ax",%progbits
  19              		.align	2
  20              		.p2align 4,,15
  21              		.global	vexMotorSet
  22              		.thumb
  23              		.thumb_func
  24              		.type	vexMotorSet, %function
  25              	vexMotorSet:
  26              	.LFB64:
  27              		.file 1 "../convex/cortex/fw/vexmotor.c"
  28              		.loc 1 108 0
  29              		.cfi_startproc
  30              		@ args = 0, pretend = 0, frame = 0
  31              		@ frame_needed = 0, uses_anonymous_args = 0
  32              		@ link register save eliminated.
  33              	.LVL0:
  34              		.loc 1 109 0
  35 0000 83B2     		uxth	r3, r0
  36 0002 092B     		cmp	r3, #9
  37 0004 0CD8     		bhi	.L1
  38              	.LVL1:
  39 0006 6FF07E03 		mvn	r3, #126
  40 000a 9942     		cmp	r1, r3
  41 000c B8BF     		it	lt
  42 000e 1946     		movlt	r1, r3
  43              	.LVL2:
  44              	.LBB6:
  45              	.LBB7:
  46              		.loc 1 120 0
  47 0010 00EB8000 		add	r0, r0, r0, lsl #2
  48              	.LVL3:
  49 0014 034B     		ldr	r3, .L4
  50 0016 7F29     		cmp	r1, #127
  51 0018 A8BF     		it	ge
  52 001a 7F21     		movge	r1, #127
  53              	.LVL4:
  54 001c 8000     		lsls	r0, r0, #2
  55 001e 1952     		strh	r1, [r3, r0]	@ movhi
  56              	.LVL5:
  57              	.L1:
ARM GAS  C:\Users\KE'OND~1\AppData\Local\Temp\ccwyzsgk.s 			page 2


  58 0020 7047     		bx	lr
  59              	.L5:
  60 0022 00BF     		.align	2
  61              	.L4:
  62 0024 00000000 		.word	.LANCHOR0
  63              	.LBE7:
  64              	.LBE6:
  65              		.cfi_endproc
  66              	.LFE64:
  67              		.size	vexMotorSet, .-vexMotorSet
  68              		.section	.text.vexMotorGet,"ax",%progbits
  69              		.align	2
  70              		.p2align 4,,15
  71              		.global	vexMotorGet
  72              		.thumb
  73              		.thumb_func
  74              		.type	vexMotorGet, %function
  75              	vexMotorGet:
  76              	.LFB65:
  77              		.loc 1 131 0
  78              		.cfi_startproc
  79              		@ args = 0, pretend = 0, frame = 0
  80              		@ frame_needed = 0, uses_anonymous_args = 0
  81              		@ link register save eliminated.
  82              	.LVL6:
  83              		.loc 1 132 0
  84 0000 83B2     		uxth	r3, r0
  85 0002 092B     		cmp	r3, #9
  86 0004 07D8     		bhi	.L8
  87              		.loc 1 135 0
  88 0006 054B     		ldr	r3, .L9
  89 0008 00EB8000 		add	r0, r0, r0, lsl #2
  90              	.LVL7:
  91 000c 8000     		lsls	r0, r0, #2
  92 000e 185A     		ldrh	r0, [r3, r0]
  93 0010 80B2     		uxth	r0, r0
  94              		.loc 1 136 0
  95 0012 00B2     		sxth	r0, r0
  96 0014 7047     		bx	lr
  97              	.LVL8:
  98              	.L8:
  99              		.loc 1 133 0
 100 0016 0020     		movs	r0, #0
 101              	.LVL9:
 102              		.loc 1 136 0
 103 0018 00B2     		sxth	r0, r0
 104 001a 7047     		bx	lr
 105              	.L10:
 106              		.align	2
 107              	.L9:
 108 001c 00000000 		.word	.LANCHOR0
 109              		.cfi_endproc
 110              	.LFE65:
 111              		.size	vexMotorGet, .-vexMotorGet
 112              		.section	.text.vexMotorStopAll,"ax",%progbits
 113              		.align	2
 114              		.p2align 4,,15
ARM GAS  C:\Users\KE'OND~1\AppData\Local\Temp\ccwyzsgk.s 			page 3


 115              		.global	vexMotorStopAll
 116              		.thumb
 117              		.thumb_func
 118              		.type	vexMotorStopAll, %function
 119              	vexMotorStopAll:
 120              	.LFB66:
 121              		.loc 1 144 0
 122              		.cfi_startproc
 123              		@ args = 0, pretend = 0, frame = 0
 124              		@ frame_needed = 0, uses_anonymous_args = 0
 125              		@ link register save eliminated.
 126              	.LVL10:
 127              	.LBB12:
 128              	.LBB13:
 129              	.LBB14:
 130              		.loc 1 120 0
 131 0000 40F20003 		movw	r3, #:lower16:.LANCHOR0
 132 0004 C0F20003 		movt	r3, #:upper16:.LANCHOR0
 133 0008 0022     		movs	r2, #0
 134 000a 1A80     		strh	r2, [r3, #0]	@ movhi
 135              	.LVL11:
 136 000c 9A82     		strh	r2, [r3, #20]	@ movhi
 137              	.LVL12:
 138 000e 1A85     		strh	r2, [r3, #40]	@ movhi
 139              	.LVL13:
 140 0010 9A87     		strh	r2, [r3, #60]	@ movhi
 141              	.LVL14:
 142 0012 A3F85020 		strh	r2, [r3, #80]	@ movhi
 143              	.LVL15:
 144 0016 A3F86420 		strh	r2, [r3, #100]	@ movhi
 145              	.LVL16:
 146 001a A3F87820 		strh	r2, [r3, #120]	@ movhi
 147              	.LVL17:
 148 001e A3F88C20 		strh	r2, [r3, #140]	@ movhi
 149              	.LVL18:
 150 0022 A3F8A020 		strh	r2, [r3, #160]	@ movhi
 151              	.LVL19:
 152 0026 A3F8B420 		strh	r2, [r3, #180]	@ movhi
 153              	.LVL20:
 154 002a 7047     		bx	lr
 155              	.LBE14:
 156              	.LBE13:
 157              	.LBE12:
 158              		.cfi_endproc
 159              	.LFE66:
 160              		.size	vexMotorStopAll, .-vexMotorStopAll
 161              		.section	.text.vexMotorTypeSet,"ax",%progbits
 162              		.align	2
 163              		.p2align 4,,15
 164              		.global	vexMotorTypeSet
 165              		.thumb
 166              		.thumb_func
 167              		.type	vexMotorTypeSet, %function
 168              	vexMotorTypeSet:
 169              	.LFB67:
 170              		.loc 1 159 0
 171              		.cfi_startproc
ARM GAS  C:\Users\KE'OND~1\AppData\Local\Temp\ccwyzsgk.s 			page 4


 172              		@ args = 0, pretend = 0, frame = 0
 173              		@ frame_needed = 0, uses_anonymous_args = 0
 174              		@ link register save eliminated.
 175              	.LVL21:
 176              		.loc 1 160 0
 177 0000 83B2     		uxth	r3, r0
 178 0002 092B     		cmp	r3, #9
 179              		.loc 1 163 0
 180 0004 9FBF     		itttt	ls
 181 0006 034B     		ldrls	r3, .L14
 182 0008 00EB8000 		addls	r0, r0, r0, lsl #2
 183              	.LVL22:
 184 000c 03EB8000 		addls	r0, r3, r0, lsl #2
 185 0010 8170     		strbls	r1, [r0, #2]
 186 0012 7047     		bx	lr
 187              	.L15:
 188              		.align	2
 189              	.L14:
 190 0014 00000000 		.word	.LANCHOR0
 191              		.cfi_endproc
 192              	.LFE67:
 193              		.size	vexMotorTypeSet, .-vexMotorTypeSet
 194 0018 AFF30080 		.section	.text.vexMotorTypeGet,"ax",%progbits
 194      AFF30080 
 195              		.align	2
 196              		.p2align 4,,15
 197              		.global	vexMotorTypeGet
 198              		.thumb
 199              		.thumb_func
 200              		.type	vexMotorTypeGet, %function
 201              	vexMotorTypeGet:
 202              	.LFB68:
 203              		.loc 1 174 0
 204              		.cfi_startproc
 205              		@ args = 0, pretend = 0, frame = 0
 206              		@ frame_needed = 0, uses_anonymous_args = 0
 207              		@ link register save eliminated.
 208              	.LVL23:
 209              		.loc 1 175 0
 210 0000 83B2     		uxth	r3, r0
 211 0002 092B     		cmp	r3, #9
 212              		.loc 1 178 0
 213 0004 9FBF     		itttt	ls
 214 0006 044B     		ldrls	r3, .L19
 215 0008 00EB8000 		addls	r0, r0, r0, lsl #2
 216              	.LVL24:
 217 000c 03EB8000 		addls	r0, r3, r0, lsl #2
 218 0010 8078     		ldrbls	r0, [r0, #2]	@ zero_extendqisi2
 219              		.loc 1 176 0
 220 0012 88BF     		it	hi
 221 0014 0020     		movhi	r0, #0
 222              		.loc 1 179 0
 223 0016 7047     		bx	lr
 224              	.L20:
 225              		.align	2
 226              	.L19:
 227 0018 00000000 		.word	.LANCHOR0
ARM GAS  C:\Users\KE'OND~1\AppData\Local\Temp\ccwyzsgk.s 			page 5


 228              		.cfi_endproc
 229              	.LFE68:
 230              		.size	vexMotorTypeGet, .-vexMotorTypeGet
 231 001c AFF30080 		.section	.text.vexMotorDirectionSet,"ax",%progbits
 232              		.align	2
 233              		.p2align 4,,15
 234              		.global	vexMotorDirectionSet
 235              		.thumb
 236              		.thumb_func
 237              		.type	vexMotorDirectionSet, %function
 238              	vexMotorDirectionSet:
 239              	.LFB69:
 240              		.loc 1 189 0
 241              		.cfi_startproc
 242              		@ args = 0, pretend = 0, frame = 0
 243              		@ frame_needed = 0, uses_anonymous_args = 0
 244              		@ link register save eliminated.
 245              	.LVL25:
 246              		.loc 1 190 0
 247 0000 83B2     		uxth	r3, r0
 248 0002 092B     		cmp	r3, #9
 249              		.loc 1 193 0
 250 0004 9FBF     		itttt	ls
 251 0006 034B     		ldrls	r3, .L23
 252 0008 00EB8000 		addls	r0, r0, r0, lsl #2
 253              	.LVL26:
 254 000c 03EB8000 		addls	r0, r3, r0, lsl #2
 255 0010 C170     		strbls	r1, [r0, #3]
 256 0012 7047     		bx	lr
 257              	.L24:
 258              		.align	2
 259              	.L23:
 260 0014 00000000 		.word	.LANCHOR0
 261              		.cfi_endproc
 262              	.LFE69:
 263              		.size	vexMotorDirectionSet, .-vexMotorDirectionSet
 264 0018 AFF30080 		.section	.text.vexMotorDirectionGet,"ax",%progbits
 264      AFF30080 
 265              		.align	2
 266              		.p2align 4,,15
 267              		.global	vexMotorDirectionGet
 268              		.thumb
 269              		.thumb_func
 270              		.type	vexMotorDirectionGet, %function
 271              	vexMotorDirectionGet:
 272              	.LFB70:
 273              		.loc 1 204 0
 274              		.cfi_startproc
 275              		@ args = 0, pretend = 0, frame = 0
 276              		@ frame_needed = 0, uses_anonymous_args = 0
 277              		@ link register save eliminated.
 278              	.LVL27:
 279              		.loc 1 205 0
 280 0000 83B2     		uxth	r3, r0
 281 0002 092B     		cmp	r3, #9
 282              		.loc 1 208 0
 283 0004 9FBF     		itttt	ls
ARM GAS  C:\Users\KE'OND~1\AppData\Local\Temp\ccwyzsgk.s 			page 6


 284 0006 044B     		ldrls	r3, .L28
 285 0008 00EB8000 		addls	r0, r0, r0, lsl #2
 286              	.LVL28:
 287 000c 03EB8000 		addls	r0, r3, r0, lsl #2
 288 0010 C078     		ldrbls	r0, [r0, #3]	@ zero_extendqisi2
 289              		.loc 1 206 0
 290 0012 88BF     		it	hi
 291 0014 0020     		movhi	r0, #0
 292              		.loc 1 209 0
 293 0016 7047     		bx	lr
 294              	.L29:
 295              		.align	2
 296              	.L28:
 297 0018 00000000 		.word	.LANCHOR0
 298              		.cfi_endproc
 299              	.LFE70:
 300              		.size	vexMotorDirectionGet, .-vexMotorDirectionGet
 301 001c AFF30080 		.section	.text.vexMotorPositionSet,"ax",%progbits
 302              		.align	2
 303              		.p2align 4,,15
 304              		.global	vexMotorPositionSet
 305              		.thumb
 306              		.thumb_func
 307              		.type	vexMotorPositionSet, %function
 308              	vexMotorPositionSet:
 309              	.LFB71:
 310              		.loc 1 219 0
 311              		.cfi_startproc
 312              		@ args = 0, pretend = 0, frame = 0
 313              		@ frame_needed = 0, uses_anonymous_args = 0
 314              	.LVL29:
 315 0000 38B5     		push	{r3, r4, r5, lr}
 316              	.LCFI0:
 317              		.cfi_def_cfa_offset 16
 318              		.cfi_offset 3, -16
 319              		.cfi_offset 4, -12
 320              		.cfi_offset 5, -8
 321              		.cfi_offset 14, -4
 322              		.loc 1 220 0
 323 0002 83B2     		uxth	r3, r0
 324 0004 092B     		cmp	r3, #9
 325 0006 16D8     		bhi	.L30
 326              		.loc 1 223 0
 327 0008 0C4B     		ldr	r3, .L38
 328 000a 8200     		lsls	r2, r0, #2
 329 000c 1518     		adds	r5, r2, r0
 330 000e 03EB8505 		add	r5, r3, r5, lsl #2
 331 0012 AC68     		ldr	r4, [r5, #8]
 332 0014 7CB1     		cbz	r4, .L30
 333              		.loc 1 226 0
 334 0016 AD78     		ldrb	r5, [r5, #2]	@ zero_extendqisi2
 335 0018 012D     		cmp	r5, #1
 336              		.loc 1 230 0
 337 001a 02EB0005 		add	r5, r2, r0
 338 001e 03EB8505 		add	r5, r3, r5, lsl #2
 339 0022 ED78     		ldrb	r5, [r5, #3]	@ zero_extendqisi2
 340              		.loc 1 227 0
ARM GAS  C:\Users\KE'OND~1\AppData\Local\Temp\ccwyzsgk.s 			page 7


 341 0024 08BF     		it	eq
 342 0026 4942     		negeq	r1, r1
 343              	.LVL30:
 344              		.loc 1 230 0
 345 0028 35B1     		cbz	r5, .L37
 346              	.L33:
 347              		.loc 1 234 0
 348 002a 1018     		adds	r0, r2, r0
 349              	.LVL31:
 350 002c 03EB8003 		add	r3, r3, r0, lsl #2
 351 0030 B3F91000 		ldrsh	r0, [r3, #16]
 352 0034 A047     		blx	r4
 353              	.LVL32:
 354              	.L30:
 355 0036 38BD     		pop	{r3, r4, r5, pc}
 356              	.LVL33:
 357              	.L37:
 358              		.loc 1 231 0
 359 0038 4942     		negs	r1, r1
 360              	.LVL34:
 361 003a F6E7     		b	.L33
 362              	.L39:
 363              		.align	2
 364              	.L38:
 365 003c 00000000 		.word	.LANCHOR0
 366              		.cfi_endproc
 367              	.LFE71:
 368              		.size	vexMotorPositionSet, .-vexMotorPositionSet
 369              		.section	.text.vexMotorPositionGet,"ax",%progbits
 370              		.align	2
 371              		.p2align 4,,15
 372              		.global	vexMotorPositionGet
 373              		.thumb
 374              		.thumb_func
 375              		.type	vexMotorPositionGet, %function
 376              	vexMotorPositionGet:
 377              	.LFB72:
 378              		.loc 1 248 0
 379              		.cfi_startproc
 380              		@ args = 0, pretend = 0, frame = 0
 381              		@ frame_needed = 0, uses_anonymous_args = 0
 382              	.LVL35:
 383 0000 F8B5     		push	{r3, r4, r5, r6, r7, lr}
 384              	.LCFI1:
 385              		.cfi_def_cfa_offset 24
 386              		.cfi_offset 3, -24
 387              		.cfi_offset 4, -20
 388              		.cfi_offset 5, -16
 389              		.cfi_offset 6, -12
 390              		.cfi_offset 7, -8
 391              		.cfi_offset 14, -4
 392              		.loc 1 251 0
 393 0002 83B2     		uxth	r3, r0
 394 0004 092B     		cmp	r3, #9
 395              		.loc 1 248 0
 396 0006 0446     		mov	r4, r0
 397              		.loc 1 251 0
ARM GAS  C:\Users\KE'OND~1\AppData\Local\Temp\ccwyzsgk.s 			page 8


 398 0008 16D8     		bhi	.L43
 399              		.loc 1 254 0
 400 000a 0C4E     		ldr	r6, .L48
 401 000c 8700     		lsls	r7, r0, #2
 402 000e 3D18     		adds	r5, r7, r0
 403 0010 06EB8505 		add	r5, r6, r5, lsl #2
 404 0014 6B68     		ldr	r3, [r5, #4]
 405 0016 6BB1     		cbz	r3, .L44
 406              		.loc 1 256 0
 407 0018 B5F91000 		ldrsh	r0, [r5, #16]
 408              	.LVL36:
 409 001c 9847     		blx	r3
 410              	.LVL37:
 411              		.loc 1 262 0
 412 001e 3C19     		adds	r4, r7, r4
 413              		.loc 1 259 0
 414 0020 AB78     		ldrb	r3, [r5, #2]	@ zero_extendqisi2
 415              		.loc 1 262 0
 416 0022 06EB8406 		add	r6, r6, r4, lsl #2
 417              		.loc 1 259 0
 418 0026 012B     		cmp	r3, #1
 419              		.loc 1 262 0
 420 0028 F378     		ldrb	r3, [r6, #3]	@ zero_extendqisi2
 421              		.loc 1 260 0
 422 002a 08BF     		it	eq
 423 002c 4042     		negeq	r0, r0
 424              	.LVL38:
 425              		.loc 1 262 0
 426 002e 13B1     		cbz	r3, .L41
 427              		.loc 1 265 0
 428 0030 4042     		negs	r0, r0
 429              	.LVL39:
 430 0032 F8BD     		pop	{r3, r4, r5, r6, r7, pc}
 431              	.LVL40:
 432              	.L44:
 433              		.loc 1 252 0
 434 0034 1846     		mov	r0, r3
 435              	.LVL41:
 436              	.L41:
 437              		.loc 1 269 0
 438 0036 F8BD     		pop	{r3, r4, r5, r6, r7, pc}
 439              	.LVL42:
 440              	.L43:
 441              		.loc 1 252 0
 442 0038 0020     		movs	r0, #0
 443              	.LVL43:
 444 003a F8BD     		pop	{r3, r4, r5, r6, r7, pc}
 445              	.L49:
 446              		.align	2
 447              	.L48:
 448 003c 00000000 		.word	.LANCHOR0
 449              		.cfi_endproc
 450              	.LFE72:
 451              		.size	vexMotorPositionGet, .-vexMotorPositionGet
 452              		.section	.text.vexMotorPositionGetCallback,"ax",%progbits
 453              		.align	2
 454              		.p2align 4,,15
ARM GAS  C:\Users\KE'OND~1\AppData\Local\Temp\ccwyzsgk.s 			page 9


 455              		.global	vexMotorPositionGetCallback
 456              		.thumb
 457              		.thumb_func
 458              		.type	vexMotorPositionGetCallback, %function
 459              	vexMotorPositionGetCallback:
 460              	.LFB73:
 461              		.loc 1 280 0
 462              		.cfi_startproc
 463              		@ args = 0, pretend = 0, frame = 0
 464              		@ frame_needed = 0, uses_anonymous_args = 0
 465              		@ link register save eliminated.
 466              	.LVL44:
 467              		.loc 1 281 0
 468 0000 83B2     		uxth	r3, r0
 469 0002 092B     		cmp	r3, #9
 470              		.loc 1 284 0
 471 0004 9FBF     		itttt	ls
 472 0006 044B     		ldrls	r3, .L52
 473 0008 00EB8000 		addls	r0, r0, r0, lsl #2
 474              	.LVL45:
 475 000c 03EB8000 		addls	r0, r3, r0, lsl #2
 476 0010 4160     		strls	r1, [r0, #4]
 477              		.loc 1 285 0
 478 0012 98BF     		it	ls
 479 0014 0282     		strhls	r2, [r0, #16]	@ movhi
 480 0016 7047     		bx	lr
 481              	.L53:
 482              		.align	2
 483              	.L52:
 484 0018 00000000 		.word	.LANCHOR0
 485              		.cfi_endproc
 486              	.LFE73:
 487              		.size	vexMotorPositionGetCallback, .-vexMotorPositionGetCallback
 488 001c AFF30080 		.section	.text.vexMotorPositionSetCallback,"ax",%progbits
 489              		.align	2
 490              		.p2align 4,,15
 491              		.global	vexMotorPositionSetCallback
 492              		.thumb
 493              		.thumb_func
 494              		.type	vexMotorPositionSetCallback, %function
 495              	vexMotorPositionSetCallback:
 496              	.LFB74:
 497              		.loc 1 297 0
 498              		.cfi_startproc
 499              		@ args = 0, pretend = 0, frame = 0
 500              		@ frame_needed = 0, uses_anonymous_args = 0
 501              		@ link register save eliminated.
 502              	.LVL46:
 503              		.loc 1 298 0
 504 0000 83B2     		uxth	r3, r0
 505 0002 092B     		cmp	r3, #9
 506              		.loc 1 301 0
 507 0004 9FBF     		itttt	ls
 508 0006 044B     		ldrls	r3, .L56
 509 0008 00EB8000 		addls	r0, r0, r0, lsl #2
 510              	.LVL47:
 511 000c 03EB8000 		addls	r0, r3, r0, lsl #2
ARM GAS  C:\Users\KE'OND~1\AppData\Local\Temp\ccwyzsgk.s 			page 10


 512 0010 8160     		strls	r1, [r0, #8]
 513              		.loc 1 302 0
 514 0012 98BF     		it	ls
 515 0014 0282     		strhls	r2, [r0, #16]	@ movhi
 516 0016 7047     		bx	lr
 517              	.L57:
 518              		.align	2
 519              	.L56:
 520 0018 00000000 		.word	.LANCHOR0
 521              		.cfi_endproc
 522              	.LFE74:
 523              		.size	vexMotorPositionSetCallback, .-vexMotorPositionSetCallback
 524 001c AFF30080 		.section	.text.vexMotorEncoderIdCallback,"ax",%progbits
 525              		.align	2
 526              		.p2align 4,,15
 527              		.global	vexMotorEncoderIdCallback
 528              		.thumb
 529              		.thumb_func
 530              		.type	vexMotorEncoderIdCallback, %function
 531              	vexMotorEncoderIdCallback:
 532              	.LFB75:
 533              		.loc 1 314 0
 534              		.cfi_startproc
 535              		@ args = 0, pretend = 0, frame = 0
 536              		@ frame_needed = 0, uses_anonymous_args = 0
 537              		@ link register save eliminated.
 538              	.LVL48:
 539              		.loc 1 315 0
 540 0000 83B2     		uxth	r3, r0
 541 0002 092B     		cmp	r3, #9
 542              		.loc 1 318 0
 543 0004 9FBF     		itttt	ls
 544 0006 044B     		ldrls	r3, .L60
 545 0008 00EB8000 		addls	r0, r0, r0, lsl #2
 546              	.LVL49:
 547 000c 03EB8000 		addls	r0, r3, r0, lsl #2
 548 0010 C160     		strls	r1, [r0, #12]
 549              		.loc 1 319 0
 550 0012 98BF     		it	ls
 551 0014 0282     		strhls	r2, [r0, #16]	@ movhi
 552 0016 7047     		bx	lr
 553              	.L61:
 554              		.align	2
 555              	.L60:
 556 0018 00000000 		.word	.LANCHOR0
 557              		.cfi_endproc
 558              	.LFE75:
 559              		.size	vexMotorEncoderIdCallback, .-vexMotorEncoderIdCallback
 560 001c AFF30080 		.section	.text.vexMotorEncoderIdGet,"ax",%progbits
 561              		.align	2
 562              		.p2align 4,,15
 563              		.global	vexMotorEncoderIdGet
 564              		.thumb
 565              		.thumb_func
 566              		.type	vexMotorEncoderIdGet, %function
 567              	vexMotorEncoderIdGet:
 568              	.LFB76:
ARM GAS  C:\Users\KE'OND~1\AppData\Local\Temp\ccwyzsgk.s 			page 11


 569              		.loc 1 331 0
 570              		.cfi_startproc
 571              		@ args = 0, pretend = 0, frame = 0
 572              		@ frame_needed = 0, uses_anonymous_args = 0
 573              	.LVL50:
 574 0000 08B5     		push	{r3, lr}
 575              	.LCFI2:
 576              		.cfi_def_cfa_offset 8
 577              		.cfi_offset 3, -8
 578              		.cfi_offset 14, -4
 579              		.loc 1 332 0
 580 0002 83B2     		uxth	r3, r0
 581 0004 092B     		cmp	r3, #9
 582 0006 0BD8     		bhi	.L65
 583              		.loc 1 335 0
 584 0008 074B     		ldr	r3, .L66
 585 000a 00EB8000 		add	r0, r0, r0, lsl #2
 586              	.LVL51:
 587 000e 03EB8000 		add	r0, r3, r0, lsl #2
 588 0012 C368     		ldr	r3, [r0, #12]
 589 0014 23B1     		cbz	r3, .L65
 590              		.loc 1 337 0
 591 0016 B0F91000 		ldrsh	r0, [r0, #16]
 592 001a 9847     		blx	r3
 593              	.LVL52:
 594              	.L63:
 595              		.loc 1 341 0
 596 001c 00B2     		sxth	r0, r0
 597 001e 08BD     		pop	{r3, pc}
 598              	.L65:
 599              		.loc 1 333 0
 600 0020 4FF6FF70 		movw	r0, #65535
 601 0024 FAE7     		b	.L63
 602              	.L67:
 603 0026 00BF     		.align	2
 604              	.L66:
 605 0028 00000000 		.word	.LANCHOR0
 606              		.cfi_endproc
 607              	.LFE76:
 608              		.size	vexMotorEncoderIdGet, .-vexMotorEncoderIdGet
 609 002c AFF30080 		.section	.text.vexMotorDebug,"ax",%progbits
 610              		.align	2
 611              		.p2align 4,,15
 612              		.global	vexMotorDebug
 613              		.thumb
 614              		.thumb_func
 615              		.type	vexMotorDebug, %function
 616              	vexMotorDebug:
 617              	.LFB77:
 618              		.loc 1 352 0
 619              		.cfi_startproc
 620              		@ args = 0, pretend = 0, frame = 0
 621              		@ frame_needed = 0, uses_anonymous_args = 0
 622              	.LVL53:
 623 0000 2DE9F041 		push	{r4, r5, r6, r7, r8, lr}
 624              	.LCFI3:
 625              		.cfi_def_cfa_offset 24
ARM GAS  C:\Users\KE'OND~1\AppData\Local\Temp\ccwyzsgk.s 			page 12


 626              		.cfi_offset 4, -24
 627              		.cfi_offset 5, -20
 628              		.cfi_offset 6, -16
 629              		.cfi_offset 7, -12
 630              		.cfi_offset 8, -8
 631              		.cfi_offset 14, -4
 632              		.loc 1 356 0
 633 0004 0129     		cmp	r1, #1
 634              		.loc 1 352 0
 635 0006 82B0     		sub	sp, sp, #8
 636              	.LCFI4:
 637              		.cfi_def_cfa_offset 32
 638              		.loc 1 352 0
 639 0008 0646     		mov	r6, r0
 640 000a 1446     		mov	r4, r2
 641              		.loc 1 356 0
 642 000c 1ADD     		ble	.L78
 643              		.loc 1 372 0
 644 000e 1068     		ldr	r0, [r2, #0]
 645              	.LVL54:
 646 0010 FFF7FEFF 		bl	atoi
 647              	.LVL55:
 648 0014 80B2     		uxth	r0, r0
 649              	.LVL56:
 650              		.loc 1 374 0
 651 0016 05B2     		sxth	r5, r0
 652              		.loc 1 373 0
 653 0018 6068     		ldr	r0, [r4, #4]
 654              	.LVL57:
 655 001a FFF7FEFF 		bl	atoi
 656              	.LVL58:
 657              		.loc 1 374 0
 658 001e 002D     		cmp	r5, #0
 659 0020 0DDB     		blt	.L68
 660              		.loc 1 375 0
 661 0022 04B2     		sxth	r4, r0
 662              	.LVL59:
 663 0024 2149     		ldr	r1, .L80
 664 0026 3046     		mov	r0, r6
 665              	.LVL60:
 666 0028 2A46     		mov	r2, r5
 667 002a 2346     		mov	r3, r4
 668 002c FFF7FEFF 		bl	vex_chprintf
 669              	.LVL61:
 670              		.loc 1 377 0
 671 0030 2846     		mov	r0, r5
 672 0032 2146     		mov	r1, r4
 673              		.loc 1 380 0
 674 0034 02B0     		add	sp, sp, #8
 675 0036 BDE8F041 		pop	{r4, r5, r6, r7, r8, lr}
 676              		.loc 1 377 0
 677 003a FFF7FEBF 		b	vexMotorSet
 678              	.LVL62:
 679              	.L68:
 680              		.loc 1 380 0
 681 003e 02B0     		add	sp, sp, #8
 682 0040 BDE8F081 		pop	{r4, r5, r6, r7, r8, pc}
ARM GAS  C:\Users\KE'OND~1\AppData\Local\Temp\ccwyzsgk.s 			page 13


 683              	.LVL63:
 684              	.L78:
 685 0044 1A4D     		ldr	r5, .L80+4
 686              		.loc 1 359 0
 687 0046 1B49     		ldr	r1, .L80+8
 688              	.LVL64:
 689 0048 FFF7FEFF 		bl	vex_chprintf
 690              	.LVL65:
 691 004c 0024     		movs	r4, #0
 692              	.LVL66:
 693 004e A5F10308 		sub	r8, r5, #3
 694 0052 13E0     		b	.L73
 695              	.LVL67:
 696              	.L79:
 697              		.loc 1 364 0
 698 0054 1849     		ldr	r1, .L80+12
 699 0056 FFF7FEFF 		bl	vex_chprintf
 700              	.LVL68:
 701              	.L71:
 702              	.LBB15:
 703              	.LBB16:
 704              		.loc 1 335 0
 705 005a D5F80930 		ldr	r3, [r5, #9]
 706 005e 4FF0FF32 		mov	r2, #-1
 707 0062 1BB1     		cbz	r3, .L72
 708              		.loc 1 337 0
 709 0064 B5F90D00 		ldrsh	r0, [r5, #13]
 710 0068 9847     		blx	r3
 711              	.LVL69:
 712 006a 0246     		mov	r2, r0
 713              	.L72:
 714              	.LBE16:
 715              	.LBE15:
 716              		.loc 1 367 0
 717 006c 3046     		mov	r0, r6
 718 006e 1349     		ldr	r1, .L80+16
 719 0070 0134     		adds	r4, r4, #1
 720              	.LVL70:
 721 0072 FFF7FEFF 		bl	vex_chprintf
 722              	.LVL71:
 723 0076 1435     		adds	r5, r5, #20
 724              		.loc 1 360 0
 725 0078 0A2C     		cmp	r4, #10
 726 007a E0D0     		beq	.L68
 727              	.LVL72:
 728              	.L73:
 729              		.loc 1 362 0
 730 007c 04EB8403 		add	r3, r4, r4, lsl #2
 731 0080 20B2     		sxth	r0, r4
 732 0082 38F82370 		ldrh	r7, [r8, r3, lsl #2]
 733 0086 FFF7FEFF 		bl	vexMotorPositionGet
 734              	.LVL73:
 735 008a BFB2     		uxth	r7, r7
 736 008c 3BB2     		sxth	r3, r7
 737 008e 0090     		str	r0, [sp, #0]
 738 0090 0B49     		ldr	r1, .L80+20
 739 0092 2246     		mov	r2, r4
ARM GAS  C:\Users\KE'OND~1\AppData\Local\Temp\ccwyzsgk.s 			page 14


 740 0094 3046     		mov	r0, r6
 741 0096 FFF7FEFF 		bl	vex_chprintf
 742              	.LVL74:
 743              		.loc 1 363 0
 744 009a 2B78     		ldrb	r3, [r5, #0]	@ zero_extendqisi2
 745              		.loc 1 366 0
 746 009c 0949     		ldr	r1, .L80+24
 747 009e 3046     		mov	r0, r6
 748              		.loc 1 363 0
 749 00a0 002B     		cmp	r3, #0
 750 00a2 D7D1     		bne	.L79
 751              	.LVL75:
 752              		.loc 1 366 0
 753 00a4 FFF7FEFF 		bl	vex_chprintf
 754              	.LVL76:
 755 00a8 D7E7     		b	.L71
 756              	.L81:
 757 00aa 00BF     		.align	2
 758              	.L80:
 759 00ac 50000000 		.word	.LC5
 760 00b0 03000000 		.word	.LANCHOR0+3
 761 00b4 00000000 		.word	.LC0
 762 00b8 38000000 		.word	.LC2
 763 00bc 48000000 		.word	.LC4
 764 00c0 24000000 		.word	.LC1
 765 00c4 40000000 		.word	.LC3
 766              		.cfi_endproc
 767              	.LFE77:
 768              		.size	vexMotorDebug, .-vexMotorDebug
 769 00c8 AFF30080 		.section	.text._vexMotorPwmInit,"ax",%progbits
 769      AFF30080 
 770              		.align	2
 771              		.p2align 4,,15
 772              		.global	_vexMotorPwmInit
 773              		.thumb
 774              		.thumb_func
 775              		.type	_vexMotorPwmInit, %function
 776              	_vexMotorPwmInit:
 777              	.LFB79:
 778              		.loc 1 493 0
 779              		.cfi_startproc
 780              		@ args = 0, pretend = 0, frame = 0
 781              		@ frame_needed = 0, uses_anonymous_args = 0
 782              	.LVL77:
 783 0000 2DE9F843 		push	{r3, r4, r5, r6, r7, r8, r9, lr}
 784              	.LCFI5:
 785              		.cfi_def_cfa_offset 32
 786              		.cfi_offset 3, -32
 787              		.cfi_offset 4, -28
 788              		.cfi_offset 5, -24
 789              		.cfi_offset 6, -20
 790              		.cfi_offset 7, -16
 791              		.cfi_offset 8, -12
 792              		.cfi_offset 9, -8
 793              		.cfi_offset 14, -4
 794              		.loc 1 496 0
 795 0004 4FF48063 		mov	r3, #1024
ARM GAS  C:\Users\KE'OND~1\AppData\Local\Temp\ccwyzsgk.s 			page 15


 796 0008 C4F20003 		movt	r3, 16384
 797 000c 9842     		cmp	r0, r3
 798              		.loc 1 493 0
 799 000e 0446     		mov	r4, r0
 800              		.loc 1 496 0
 801 0010 00F08480 		beq	.L87
 802              		.loc 1 504 0
 803 0014 4FF40063 		mov	r3, #2048
 804 0018 C4F20003 		movt	r3, 16384
 805 001c 9842     		cmp	r0, r3
 806 001e 01D0     		beq	.L88
 807 0020 BDE8F883 		pop	{r3, r4, r5, r6, r7, r8, r9, pc}
 808              	.L88:
 809              		.loc 1 506 0
 810 0024 0022     		movs	r2, #0
 811 0026 C4F20102 		movt	r2, 16385
 812 002a 5168     		ldr	r1, [r2, #4]
 813              		.loc 1 507 0
 814 002c 4FF48053 		mov	r3, #4096
 815              		.loc 1 506 0
 816 0030 1943     		orrs	r1, r1, r3
 817 0032 5160     		str	r1, [r2, #4]
 818              		.loc 1 507 0
 819 0034 C4F20203 		movt	r3, 16386
 820 0038 DA69     		ldr	r2, [r3, #28]
 821              		.loc 1 509 0
 822 003a 1E20     		movs	r0, #30
 823              	.LVL78:
 824              		.loc 1 507 0
 825 003c 42F00402 		orr	r2, r2, #4
 826 0040 DA61     		str	r2, [r3, #28]
 827              		.loc 1 508 0
 828 0042 1A69     		ldr	r2, [r3, #16]
 829 0044 42F00402 		orr	r2, r2, #4
 830              	.L86:
 831 0048 1A61     		str	r2, [r3, #16]
 832 004a 0022     		movs	r2, #0
 833 004c 1A61     		str	r2, [r3, #16]
 834              		.loc 1 509 0
 835 004e 7021     		movs	r1, #112
 836 0050 FFF7FEFF 		bl	nvicEnableVector
 837              	.LVL79:
 838              		.loc 1 518 0
 839 0054 0026     		movs	r6, #0
 840              		.loc 1 522 0
 841 0056 4FF4EC72 		mov	r2, #472
 842              		.loc 1 518 0
 843 005a 2680     		strh	r6, [r4, #0]	@ movhi
 844              		.loc 1 526 0
 845 005c 46F66803 		movw	r3, #26728
 846              		.loc 1 519 0
 847 0060 A681     		strh	r6, [r4, #12]	@ movhi
 848              		.loc 1 520 0
 849 0062 2682     		strh	r6, [r4, #16]	@ movhi
 850              		.loc 1 522 0
 851 0064 2285     		strh	r2, [r4, #40]	@ movhi
 852              		.loc 1 523 0
ARM GAS  C:\Users\KE'OND~1\AppData\Local\Temp\ccwyzsgk.s 			page 16


 853 0066 7E22     		movs	r2, #126
 854 0068 A285     		strh	r2, [r4, #44]	@ movhi
 855              		.loc 1 524 0
 856 006a A680     		strh	r6, [r4, #4]	@ movhi
 857              		.loc 1 526 0
 858 006c 2383     		strh	r3, [r4, #24]	@ movhi
 859              		.loc 1 528 0
 860 006e A383     		strh	r3, [r4, #28]	@ movhi
 861              		.loc 1 531 0
 862 0070 42F22223 		movw	r3, #8738
 863 0074 2384     		strh	r3, [r4, #32]	@ movhi
 864              		.loc 1 532 0
 865 0076 238C     		ldrh	r3, [r4, #32]
 866              		.loc 1 543 0
 867 0078 4FF4A055 		mov	r5, #5120
 868              		.loc 1 532 0
 869 007c 9BB2     		uxth	r3, r3
 870 007e 43F48853 		orr	r3, r3, #4352
 871 0082 43F01103 		orr	r3, r3, #17
 872 0086 2384     		strh	r3, [r4, #32]	@ movhi
 873              		.loc 1 515 0
 874 0088 2E4B     		ldr	r3, .L89
 875              		.loc 1 543 0
 876 008a C4F20105 		movt	r5, 16385
 877 008e 4FF0080E 		mov	lr, #8
 878              		.loc 1 544 0
 879 0092 1027     		movs	r7, #16
 880              		.loc 1 515 0
 881 0094 1C60     		str	r4, [r3, #0]
 882              		.loc 1 545 0
 883 0096 4FF08009 		mov	r9, #128
 884              		.loc 1 540 0
 885 009a 8123     		movs	r3, #129
 886              		.loc 1 546 0
 887 009c 4FF48078 		mov	r8, #256
 888              		.loc 1 535 0
 889 00a0 A686     		strh	r6, [r4, #52]	@ movhi
 890              		.loc 1 547 0
 891 00a2 7146     		mov	r1, lr
 892              		.loc 1 536 0
 893 00a4 2687     		strh	r6, [r4, #56]	@ movhi
 894              		.loc 1 547 0
 895 00a6 0622     		movs	r2, #6
 896              		.loc 1 537 0
 897 00a8 A687     		strh	r6, [r4, #60]	@ movhi
 898              		.loc 1 547 0
 899 00aa 2846     		mov	r0, r5
 900              		.loc 1 538 0
 901 00ac A4F84060 		strh	r6, [r4, #64]	@ movhi
 902              		.loc 1 540 0
 903 00b0 2380     		strh	r3, [r4, #0]	@ movhi
 904              		.loc 1 543 0
 905 00b2 C5F814E0 		str	lr, [r5, #20]
 906              		.loc 1 544 0
 907 00b6 6F61     		str	r7, [r5, #20]
 908              		.loc 1 545 0
 909 00b8 C5F81490 		str	r9, [r5, #20]
ARM GAS  C:\Users\KE'OND~1\AppData\Local\Temp\ccwyzsgk.s 			page 17


 910              		.loc 1 546 0
 911 00bc C5F81480 		str	r8, [r5, #20]
 912              		.loc 1 547 0
 913 00c0 FFF7FEFF 		bl	_pal_lld_setgroupmode
 914              	.LVL80:
 915              		.loc 1 548 0
 916 00c4 2846     		mov	r0, r5
 917 00c6 3946     		mov	r1, r7
 918 00c8 0622     		movs	r2, #6
 919 00ca FFF7FEFF 		bl	_pal_lld_setgroupmode
 920              	.LVL81:
 921              		.loc 1 549 0
 922 00ce 2846     		mov	r0, r5
 923 00d0 4946     		mov	r1, r9
 924 00d2 0622     		movs	r2, #6
 925 00d4 FFF7FEFF 		bl	_pal_lld_setgroupmode
 926              	.LVL82:
 927              		.loc 1 550 0
 928 00d8 2846     		mov	r0, r5
 929 00da 4146     		mov	r1, r8
 930 00dc 0622     		movs	r2, #6
 931 00de FFF7FEFF 		bl	_pal_lld_setgroupmode
 932              	.LVL83:
 933              		.loc 1 553 0
 934 00e2 2846     		mov	r0, r5
 935 00e4 4FF48051 		mov	r1, #4096
 936 00e8 3A46     		mov	r2, r7
 937 00ea FFF7FEFF 		bl	_pal_lld_setgroupmode
 938              	.LVL84:
 939              		.loc 1 554 0
 940 00ee 2846     		mov	r0, r5
 941 00f0 4FF40051 		mov	r1, #8192
 942 00f4 3A46     		mov	r2, r7
 943 00f6 FFF7FEFF 		bl	_pal_lld_setgroupmode
 944              	.LVL85:
 945              		.loc 1 555 0
 946 00fa 2846     		mov	r0, r5
 947 00fc 4FF48041 		mov	r1, #16384
 948 0100 3A46     		mov	r2, r7
 949 0102 FFF7FEFF 		bl	_pal_lld_setgroupmode
 950              	.LVL86:
 951              		.loc 1 556 0
 952 0106 2846     		mov	r0, r5
 953 0108 4FF40041 		mov	r1, #32768
 954 010c 3A46     		mov	r2, r7
 955 010e FFF7FEFF 		bl	_pal_lld_setgroupmode
 956              	.LVL87:
 957              		.loc 1 560 0
 958 0112 0123     		movs	r3, #1
 959 0114 A381     		strh	r3, [r4, #12]	@ movhi
 960              		.loc 1 561 0
 961 0116 2682     		strh	r6, [r4, #16]	@ movhi
 962 0118 BDE8F883 		pop	{r3, r4, r5, r6, r7, r8, r9, pc}
 963              	.LVL88:
 964              	.L87:
 965              		.loc 1 498 0
 966 011c 0022     		movs	r2, #0
ARM GAS  C:\Users\KE'OND~1\AppData\Local\Temp\ccwyzsgk.s 			page 18


 967 011e C4F20102 		movt	r2, 16385
 968 0122 5168     		ldr	r1, [r2, #4]
 969              		.loc 1 499 0
 970 0124 4FF48053 		mov	r3, #4096
 971              		.loc 1 498 0
 972 0128 41F44061 		orr	r1, r1, #3072
 973 012c 5160     		str	r1, [r2, #4]
 974              		.loc 1 499 0
 975 012e C4F20203 		movt	r3, 16386
 976 0132 DA69     		ldr	r2, [r3, #28]
 977              		.loc 1 501 0
 978 0134 1D20     		movs	r0, #29
 979              	.LVL89:
 980              		.loc 1 499 0
 981 0136 42F00202 		orr	r2, r2, #2
 982 013a DA61     		str	r2, [r3, #28]
 983              		.loc 1 500 0
 984 013c 1A69     		ldr	r2, [r3, #16]
 985 013e 42F00202 		orr	r2, r2, #2
 986 0142 81E7     		b	.L86
 987              	.L90:
 988              		.align	2
 989              	.L89:
 990 0144 00000000 		.word	.LANCHOR1
 991              		.cfi_endproc
 992              	.LFE79:
 993              		.size	_vexMotorPwmInit, .-_vexMotorPwmInit
 994 0148 AFF30080 		.section	.text.vexMotorInit,"ax",%progbits
 994      AFF30080 
 995              		.align	2
 996              		.p2align 4,,15
 997              		.global	vexMotorInit
 998              		.thumb
 999              		.thumb_func
 1000              		.type	vexMotorInit, %function
 1001              	vexMotorInit:
 1002              	.LFB63:
 1003              		.loc 1 79 0
 1004              		.cfi_startproc
 1005              		@ args = 0, pretend = 0, frame = 0
 1006              		@ frame_needed = 0, uses_anonymous_args = 0
 1007              		@ link register save eliminated.
 1008              	.LVL90:
 1009 0000 0E4A     		ldr	r2, .L94
 1010 0002 0023     		movs	r3, #0
 1011 0004 10B4     		push	{r4}
 1012              	.LCFI6:
 1013              		.cfi_def_cfa_offset 4
 1014              		.cfi_offset 4, -4
 1015              		.loc 1 84 0
 1016 0006 1946     		mov	r1, r3
 1017 0008 A2F10804 		sub	r4, r2, #8
 1018              	.LVL91:
 1019              	.L92:
 1020              		.loc 1 84 0 is_stmt 0 discriminator 2
 1021 000c 03EB8300 		add	r0, r3, r3, lsl #2
 1022 0010 0133     		adds	r3, r3, #1
ARM GAS  C:\Users\KE'OND~1\AppData\Local\Temp\ccwyzsgk.s 			page 19


 1023 0012 24F82010 		strh	r1, [r4, r0, lsl #2]	@ movhi
 1024              		.loc 1 85 0 is_stmt 1 discriminator 2
 1025 0016 0020     		movs	r0, #0
 1026              		.loc 1 82 0 discriminator 2
 1027 0018 0A2B     		cmp	r3, #10
 1028              		.loc 1 85 0 discriminator 2
 1029 001a 02F8060C 		strb	r0, [r2, #-6]
 1030              		.loc 1 86 0 discriminator 2
 1031 001e 02F8051C 		strb	r1, [r2, #-5]
 1032              		.loc 1 87 0 discriminator 2
 1033 0022 42F8041C 		str	r1, [r2, #-4]
 1034              		.loc 1 88 0 discriminator 2
 1035 0026 42F8141B 		str	r1, [r2], #20
 1036              		.loc 1 82 0 discriminator 2
 1037 002a EFD1     		bne	.L92
 1038              		.loc 1 95 0
 1039 002c 4FF40060 		mov	r0, #2048
 1040 0030 C4F20000 		movt	r0, 16384
 1041              		.loc 1 98 0
 1042 0034 10BC     		pop	{r4}
 1043              		.loc 1 95 0
 1044 0036 FFF7FEBF 		b	_vexMotorPwmInit
 1045              	.LVL92:
 1046              	.L95:
 1047 003a 00BF     		.align	2
 1048              	.L94:
 1049 003c 08000000 		.word	.LANCHOR0+8
 1050              		.cfi_endproc
 1051              	.LFE63:
 1052              		.size	vexMotorInit, .-vexMotorInit
 1053              		.section	.text._vexMotorPwmSet_0,"ax",%progbits
 1054              		.align	2
 1055              		.p2align 4,,15
 1056              		.global	_vexMotorPwmSet_0
 1057              		.thumb
 1058              		.thumb_func
 1059              		.type	_vexMotorPwmSet_0, %function
 1060              	_vexMotorPwmSet_0:
 1061              	.LFB80:
 1062              		.loc 1 576 0
 1063              		.cfi_startproc
 1064              		@ args = 0, pretend = 0, frame = 0
 1065              		@ frame_needed = 0, uses_anonymous_args = 0
 1066              		@ link register save eliminated.
 1067              	.LVL93:
 1068              		.loc 1 579 0
 1069 0000 144B     		ldr	r3, .L104
 1070 0002 1B68     		ldr	r3, [r3, #0]
 1071 0004 C3B1     		cbz	r3, .L96
 1072              		.loc 1 582 0
 1073 0006 0028     		cmp	r0, #0
 1074              		.loc 1 585 0
 1075 0008 4FF4A052 		mov	r2, #5120
 1076              		.loc 1 582 0
 1077 000c 0BDD     		ble	.L98
 1078              		.loc 1 584 0
 1079 000e 0021     		movs	r1, #0
ARM GAS  C:\Users\KE'OND~1\AppData\Local\Temp\ccwyzsgk.s 			page 20


 1080 0010 1987     		strh	r1, [r3, #56]	@ movhi
 1081              		.loc 1 585 0
 1082 0012 C4F20102 		movt	r2, 16385
 1083 0016 0821     		movs	r1, #8
 1084 0018 5161     		str	r1, [r2, #20]
 1085              	.LVL94:
 1086              		.loc 1 588 0
 1087 001a 00F07F00 		and	r0, r0, #127
 1088              	.LVL95:
 1089              		.loc 1 587 0
 1090 001e 1021     		movs	r1, #16
 1091 0020 1161     		str	r1, [r2, #16]
 1092              		.loc 1 588 0
 1093 0022 9886     		strh	r0, [r3, #52]	@ movhi
 1094 0024 7047     		bx	lr
 1095              	.LVL96:
 1096              	.L98:
 1097              		.loc 1 591 0
 1098 0026 08D1     		bne	.L103
 1099              		.loc 1 601 0
 1100 0028 9886     		strh	r0, [r3, #52]	@ movhi
 1101              		.loc 1 603 0
 1102 002a C4F20102 		movt	r2, 16385
 1103              		.loc 1 602 0
 1104 002e 1887     		strh	r0, [r3, #56]	@ movhi
 1105              		.loc 1 603 0
 1106 0030 0823     		movs	r3, #8
 1107 0032 5361     		str	r3, [r2, #20]
 1108              		.loc 1 604 0
 1109 0034 1023     		movs	r3, #16
 1110 0036 5361     		str	r3, [r2, #20]
 1111              	.L96:
 1112 0038 7047     		bx	lr
 1113              	.L103:
 1114              		.loc 1 593 0
 1115 003a 0021     		movs	r1, #0
 1116 003c 9986     		strh	r1, [r3, #52]	@ movhi
 1117              		.loc 1 594 0
 1118 003e C4F20102 		movt	r2, 16385
 1119 0042 1021     		movs	r1, #16
 1120              		.loc 1 595 0
 1121 0044 4042     		negs	r0, r0
 1122              	.LVL97:
 1123              		.loc 1 594 0
 1124 0046 5161     		str	r1, [r2, #20]
 1125              		.loc 1 595 0
 1126 0048 00F07F00 		and	r0, r0, #127
 1127              	.LVL98:
 1128              		.loc 1 596 0
 1129 004c 0821     		movs	r1, #8
 1130 004e 1161     		str	r1, [r2, #16]
 1131              		.loc 1 597 0
 1132 0050 1887     		strh	r0, [r3, #56]	@ movhi
 1133 0052 7047     		bx	lr
 1134              	.L105:
 1135              		.align	2
 1136              	.L104:
ARM GAS  C:\Users\KE'OND~1\AppData\Local\Temp\ccwyzsgk.s 			page 21


 1137 0054 00000000 		.word	.LANCHOR1
 1138              		.cfi_endproc
 1139              	.LFE80:
 1140              		.size	_vexMotorPwmSet_0, .-_vexMotorPwmSet_0
 1141 0058 AFF30080 		.section	.text._vexMotorPwmSet_9,"ax",%progbits
 1141      AFF30080 
 1142              		.align	2
 1143              		.p2align 4,,15
 1144              		.global	_vexMotorPwmSet_9
 1145              		.thumb
 1146              		.thumb_func
 1147              		.type	_vexMotorPwmSet_9, %function
 1148              	_vexMotorPwmSet_9:
 1149              	.LFB81:
 1150              		.loc 1 619 0
 1151              		.cfi_startproc
 1152              		@ args = 0, pretend = 0, frame = 0
 1153              		@ frame_needed = 0, uses_anonymous_args = 0
 1154              		@ link register save eliminated.
 1155              	.LVL99:
 1156              		.loc 1 622 0
 1157 0000 174B     		ldr	r3, .L114
 1158 0002 1B68     		ldr	r3, [r3, #0]
 1159 0004 E3B1     		cbz	r3, .L106
 1160              		.loc 1 625 0
 1161 0006 0028     		cmp	r0, #0
 1162              		.loc 1 628 0
 1163 0008 4FF4A052 		mov	r2, #5120
 1164              		.loc 1 625 0
 1165 000c 0DDD     		ble	.L108
 1166              		.loc 1 627 0
 1167 000e 0021     		movs	r1, #0
 1168 0010 A3F84010 		strh	r1, [r3, #64]	@ movhi
 1169              		.loc 1 628 0
 1170 0014 C4F20102 		movt	r2, 16385
 1171 0018 8021     		movs	r1, #128
 1172 001a 5161     		str	r1, [r2, #20]
 1173              	.LVL100:
 1174              		.loc 1 631 0
 1175 001c 00F07F00 		and	r0, r0, #127
 1176              	.LVL101:
 1177              		.loc 1 630 0
 1178 0020 4FF48071 		mov	r1, #256
 1179 0024 1161     		str	r1, [r2, #16]
 1180              		.loc 1 631 0
 1181 0026 9887     		strh	r0, [r3, #60]	@ movhi
 1182 0028 7047     		bx	lr
 1183              	.LVL102:
 1184              	.L108:
 1185              		.loc 1 634 0
 1186 002a 0AD1     		bne	.L113
 1187              		.loc 1 644 0
 1188 002c 9887     		strh	r0, [r3, #60]	@ movhi
 1189              		.loc 1 646 0
 1190 002e C4F20102 		movt	r2, 16385
 1191              		.loc 1 645 0
 1192 0032 A3F84000 		strh	r0, [r3, #64]	@ movhi
ARM GAS  C:\Users\KE'OND~1\AppData\Local\Temp\ccwyzsgk.s 			page 22


 1193              		.loc 1 646 0
 1194 0036 8023     		movs	r3, #128
 1195 0038 5361     		str	r3, [r2, #20]
 1196              		.loc 1 647 0
 1197 003a 4FF48073 		mov	r3, #256
 1198 003e 5361     		str	r3, [r2, #20]
 1199              	.L106:
 1200 0040 7047     		bx	lr
 1201              	.L113:
 1202              		.loc 1 636 0
 1203 0042 0021     		movs	r1, #0
 1204 0044 9987     		strh	r1, [r3, #60]	@ movhi
 1205              		.loc 1 637 0
 1206 0046 C4F20102 		movt	r2, 16385
 1207 004a 4FF48071 		mov	r1, #256
 1208              		.loc 1 638 0
 1209 004e 4042     		negs	r0, r0
 1210              	.LVL103:
 1211              		.loc 1 637 0
 1212 0050 5161     		str	r1, [r2, #20]
 1213              		.loc 1 638 0
 1214 0052 00F07F00 		and	r0, r0, #127
 1215              	.LVL104:
 1216              		.loc 1 639 0
 1217 0056 8021     		movs	r1, #128
 1218 0058 1161     		str	r1, [r2, #16]
 1219              		.loc 1 640 0
 1220 005a A3F84000 		strh	r0, [r3, #64]	@ movhi
 1221 005e 7047     		bx	lr
 1222              	.L115:
 1223              		.align	2
 1224              	.L114:
 1225 0060 00000000 		.word	.LANCHOR1
 1226              		.cfi_endproc
 1227              	.LFE81:
 1228              		.size	_vexMotorPwmSet_9, .-_vexMotorPwmSet_9
 1229 0064 AFF30080 		.section	.text.VectorB8,"ax",%progbits
 1229      AFF30080 
 1229      AFF30080 
 1230              		.align	2
 1231              		.p2align 4,,15
 1232              		.global	VectorB8
 1233              		.thumb
 1234              		.thumb_func
 1235              		.type	VectorB8, %function
 1236              	VectorB8:
 1237              	.LFB78:
 1238              		.loc 1 392 0
 1239              		.cfi_startproc
 1240              		@ args = 0, pretend = 0, frame = 0
 1241              		@ frame_needed = 0, uses_anonymous_args = 0
 1242              		.loc 1 398 0
 1243 0000 2B4B     		ldr	r3, .L137
 1244 0002 0021     		movs	r1, #0
 1245 0004 1A68     		ldr	r2, [r3, #0]
 1246              		.loc 1 392 0
 1247 0006 70B5     		push	{r4, r5, r6, lr}
ARM GAS  C:\Users\KE'OND~1\AppData\Local\Temp\ccwyzsgk.s 			page 23


 1248              	.LCFI7:
 1249              		.cfi_def_cfa_offset 16
 1250              		.cfi_offset 4, -16
 1251              		.cfi_offset 5, -12
 1252              		.cfi_offset 6, -8
 1253              		.cfi_offset 14, -4
 1254              	.LBB17:
 1255              		.loc 1 400 0
 1256 0008 2023     		movs	r3, #32
 1257              	.LVL105:
 1258              	.LBE17:
 1259              		.loc 1 398 0
 1260 000a 1182     		strh	r1, [r2, #16]	@ movhi
 1261              	.LBB18:
 1262              		.loc 1 400 0
 1263              	@ 400 "../convex/cortex/fw/vexmotor.c" 1
 1264 000c 83F31188 		msr     BASEPRI, r3
 1265              	@ 0 "" 2
 1266              	.LVL106:
 1267              		.thumb
 1268              	.LBE18:
 1269              		.loc 1 403 0
 1270 0010 284D     		ldr	r5, .L137+4
 1271 0012 EB78     		ldrb	r3, [r5, #3]	@ zero_extendqisi2
 1272              	.LVL107:
 1273              		.loc 1 404 0
 1274 0014 2C88     		ldrh	r4, [r5, #0]
 1275              		.loc 1 403 0
 1276 0016 03B1     		cbz	r3, .L131
 1277              		.loc 1 406 0
 1278 0018 6442     		negs	r4, r4
 1279              	.L131:
 1280 001a 274B     		ldr	r3, .L137+8
 1281              		.loc 1 408 0
 1282 001c 274E     		ldr	r6, .L137+12
 1283              		.loc 1 406 0
 1284 001e A4B2     		uxth	r4, r4
 1285 0020 1C80     		strh	r4, [r3, #0]	@ movhi
 1286              		.loc 1 408 0
 1287 0022 B6F90030 		ldrsh	r3, [r6, #0]
 1288 0026 20B2     		sxth	r0, r4
 1289 0028 8342     		cmp	r3, r0
 1290 002a 08D0     		beq	.L119
 1291              		.loc 1 411 0
 1292 002c 002C     		cmp	r4, #0
 1293 002e 2DD0     		beq	.L135
 1294              		.loc 1 417 0
 1295 0030 0028     		cmp	r0, #0
 1296 0032 30DD     		ble	.L121
 1297              		.loc 1 418 0
 1298 0034 002B     		cmp	r3, #0
 1299 0036 30DB     		blt	.L123
 1300              	.L132:
 1301              		.loc 1 431 0
 1302 0038 FFF7FEFF 		bl	_vexMotorPwmSet_0
 1303              	.LVL108:
 1304              		.loc 1 432 0
ARM GAS  C:\Users\KE'OND~1\AppData\Local\Temp\ccwyzsgk.s 			page 24


 1305 003c 3480     		strh	r4, [r6, #0]	@ movhi
 1306              	.L119:
 1307              		.loc 1 442 0
 1308 003e 1D4B     		ldr	r3, .L137+4
 1309 0040 95F8B720 		ldrb	r2, [r5, #183]	@ zero_extendqisi2
 1310              		.loc 1 443 0
 1311 0044 B3F8B440 		ldrh	r4, [r3, #180]
 1312              		.loc 1 442 0
 1313 0048 02B1     		cbz	r2, .L133
 1314              		.loc 1 445 0
 1315 004a 6442     		negs	r4, r4
 1316              	.L133:
 1317 004c 1C4B     		ldr	r3, .L137+16
 1318              		.loc 1 446 0
 1319 004e 1D4D     		ldr	r5, .L137+20
 1320              		.loc 1 445 0
 1321 0050 A4B2     		uxth	r4, r4
 1322 0052 1C80     		strh	r4, [r3, #0]	@ movhi
 1323              		.loc 1 446 0
 1324 0054 B5F90030 		ldrsh	r3, [r5, #0]
 1325 0058 20B2     		sxth	r0, r4
 1326 005a 8342     		cmp	r3, r0
 1327 005c 07D0     		beq	.L126
 1328              		.loc 1 449 0
 1329 005e 14B3     		cbz	r4, .L136
 1330              		.loc 1 455 0
 1331 0060 0028     		cmp	r0, #0
 1332 0062 0BDD     		ble	.L128
 1333              		.loc 1 456 0
 1334 0064 002B     		cmp	r3, #0
 1335 0066 0BDB     		blt	.L130
 1336              	.L134:
 1337              		.loc 1 469 0
 1338 0068 FFF7FEFF 		bl	_vexMotorPwmSet_9
 1339              	.LVL109:
 1340              		.loc 1 470 0
 1341 006c 2C80     		strh	r4, [r5, #0]	@ movhi
 1342              	.L126:
 1343              	.LBB19:
 1344              		.loc 1 480 0
 1345 006e 0023     		movs	r3, #0
 1346              	.LVL110:
 1347              	@ 480 "../convex/cortex/fw/vexmotor.c" 1
 1348 0070 83F31188 		msr     BASEPRI, r3
 1349              	@ 0 "" 2
 1350              	.LVL111:
 1351              		.thumb
 1352              	.LBE19:
 1353              		.loc 1 483 0
 1354 0074 BDE87040 		pop	{r4, r5, r6, lr}
 1355              		.loc 1 482 0
 1356 0078 FFF7FEBF 		b	_port_irq_epilogue
 1357              	.LVL112:
 1358              	.L128:
 1359              		.loc 1 468 0
 1360 007c 002B     		cmp	r3, #0
 1361 007e F3DD     		ble	.L134
ARM GAS  C:\Users\KE'OND~1\AppData\Local\Temp\ccwyzsgk.s 			page 25


 1362              	.L130:
 1363              		.loc 1 474 0
 1364 0080 0020     		movs	r0, #0
 1365 0082 FFF7FEFF 		bl	_vexMotorPwmSet_9
 1366              	.LVL113:
 1367              		.loc 1 475 0
 1368 0086 0023     		movs	r3, #0
 1369 0088 2B80     		strh	r3, [r5, #0]	@ movhi
 1370 008a F0E7     		b	.L126
 1371              	.L135:
 1372              		.loc 1 412 0
 1373 008c 2046     		mov	r0, r4
 1374 008e FFF7FEFF 		bl	_vexMotorPwmSet_0
 1375              	.LVL114:
 1376              		.loc 1 413 0
 1377 0092 3480     		strh	r4, [r6, #0]	@ movhi
 1378 0094 D3E7     		b	.L119
 1379              	.L121:
 1380              		.loc 1 430 0
 1381 0096 002B     		cmp	r3, #0
 1382 0098 CEDD     		ble	.L132
 1383              	.L123:
 1384              		.loc 1 436 0
 1385 009a 0020     		movs	r0, #0
 1386 009c FFF7FEFF 		bl	_vexMotorPwmSet_0
 1387              	.LVL115:
 1388              		.loc 1 437 0
 1389 00a0 0023     		movs	r3, #0
 1390 00a2 3380     		strh	r3, [r6, #0]	@ movhi
 1391 00a4 CBE7     		b	.L119
 1392              	.L136:
 1393              		.loc 1 450 0
 1394 00a6 2046     		mov	r0, r4
 1395 00a8 FFF7FEFF 		bl	_vexMotorPwmSet_9
 1396              	.LVL116:
 1397              		.loc 1 451 0
 1398 00ac 2C80     		strh	r4, [r5, #0]	@ movhi
 1399 00ae DEE7     		b	.L126
 1400              	.L138:
 1401              		.align	2
 1402              	.L137:
 1403 00b0 00000000 		.word	.LANCHOR1
 1404 00b4 00000000 		.word	.LANCHOR0
 1405 00b8 00000000 		.word	.LANCHOR2
 1406 00bc 00000000 		.word	.LANCHOR3
 1407 00c0 00000000 		.word	.LANCHOR4
 1408 00c4 00000000 		.word	.LANCHOR5
 1409              		.cfi_endproc
 1410              	.LFE78:
 1411              		.size	VectorB8, .-VectorB8
 1412 00c8 AFF30080 		.section	.bss.m0_cur_value,"aw",%nobits
 1412      AFF30080 
 1413              		.align	1
 1414              		.set	.LANCHOR3,. + 0
 1415              		.type	m0_cur_value, %object
 1416              		.size	m0_cur_value, 2
 1417              	m0_cur_value:
ARM GAS  C:\Users\KE'OND~1\AppData\Local\Temp\ccwyzsgk.s 			page 26


 1418 0000 0000     		.space	2
 1419              		.section	.bss.m9_new_value,"aw",%nobits
 1420              		.align	1
 1421              		.set	.LANCHOR4,. + 0
 1422              		.type	m9_new_value, %object
 1423              		.size	m9_new_value, 2
 1424              	m9_new_value:
 1425 0000 0000     		.space	2
 1426              		.section	.bss.m9_cur_value,"aw",%nobits
 1427              		.align	1
 1428              		.set	.LANCHOR5,. + 0
 1429              		.type	m9_cur_value, %object
 1430              		.size	m9_cur_value, 2
 1431              	m9_cur_value:
 1432 0000 0000     		.space	2
 1433              		.section	.bss.vexMotors,"aw",%nobits
 1434              		.align	2
 1435              		.set	.LANCHOR0,. + 0
 1436              		.type	vexMotors, %object
 1437              		.size	vexMotors, 200
 1438              	vexMotors:
 1439 0000 00000000 		.space	200
 1439      00000000 
 1439      00000000 
 1439      00000000 
 1439      00000000 
 1440              		.section	.bss.m0_new_value,"aw",%nobits
 1441              		.align	1
 1442              		.set	.LANCHOR2,. + 0
 1443              		.type	m0_new_value, %object
 1444              		.size	m0_new_value, 2
 1445              	m0_new_value:
 1446 0000 0000     		.space	2
 1447              		.section	.rodata.str1.4,"aMS",%progbits,1
 1448              		.align	2
 1449              	.LC0:
 1450 0000 4D6F746F 		.ascii	"Motor  Speed  Position Rev   ID\015\012\000"
 1450      72202053 
 1450      70656564 
 1450      2020506F 
 1450      73697469 
 1451 0022 0000     		.space	2
 1452              	.LC1:
 1453 0024 4D5F2564 		.ascii	"M_%d  %4d %7d      \000"
 1453      20202534 
 1453      64202537 
 1453      64202020 
 1453      20202000 
 1454              	.LC2:
 1455 0038 74727565 		.ascii	"true  \000"
 1455      202000
 1456 003f 00       		.space	1
 1457              	.LC3:
 1458 0040 66616C73 		.ascii	"false \000"
 1458      652000
 1459 0047 00       		.space	1
 1460              	.LC4:
ARM GAS  C:\Users\KE'OND~1\AppData\Local\Temp\ccwyzsgk.s 			page 27


 1461 0048 25640D0A 		.ascii	"%d\015\012\000"
 1461      00
 1462 004d 000000   		.space	3
 1463              	.LC5:
 1464 0050 73657420 		.ascii	"set motor %d to %d\015\012\000"
 1464      6D6F746F 
 1464      72202564 
 1464      20746F20 
 1464      25640D0A 
 1465 0065 000000   		.section	.bss.PwmTimer,"aw",%nobits
 1466              		.align	2
 1467              		.set	.LANCHOR1,. + 0
 1468              		.type	PwmTimer, %object
 1469              		.size	PwmTimer, 4
 1470              	PwmTimer:
 1471 0000 00000000 		.space	4
 1472              		.text
 1473              	.Letext0:
 1474              		.file 2 "c:\\yagarto-20121222\\bin\\../lib/gcc/arm-none-eabi/4.7.2/include/stddef.h"
 1475              		.file 3 "c:/yagarto-20121222/lib/gcc/../../arm-none-eabi/sys-include/stdint.h"
 1476              		.file 4 "../ChibiOS_2.6.2/os/ports/GCC/ARMCMx/chtypes.h"
 1477              		.file 5 "../ChibiOS_2.6.2/os/kernel/include/chstreams.h"
 1478              		.file 6 "../ChibiOS_2.6.2/os/hal/platforms/STM32F1xx/stm32f10x.h"
 1479              		.file 7 "../ChibiOS_2.6.2/os/hal/platforms/STM32/GPIOv1/pal_lld.h"
 1480              		.file 8 "../convex/cortex/fw/vexcompat.h"
 1481              		.file 9 "../convex/cortex/fw/vexdigital.h"
 1482              		.file 10 "../convex/cortex/fw/vexmotor.h"
 1483              		.file 11 "../convex/cortex/fw/vexime.h"
 1484              		.file 12 "c:/yagarto-20121222/lib/gcc/../../arm-none-eabi/sys-include/stdlib.h"
 1485              		.file 13 "../convex/cortex/fw/vexprintf.h"
 1486              		.file 14 "../ChibiOS_2.6.2/os/ports/common/ARMCMx/nvic.h"
 1487              		.file 15 "../ChibiOS_2.6.2/os/ports/common/ARMCMx/CMSIS/include/core_cm3.h"
 1488              		.file 16 "../ChibiOS_2.6.2/os/ports/GCC/ARMCMx/chcore_v7m.h"