ARM GAS  C:\Users\KE'OND~1\AppData\Local\Temp\ccZRf9ve.s 			page 1


   1              		.syntax unified
   2              		.cpu cortex-m3
   3              		.fpu softvfp
   4              		.eabi_attribute 20, 1
   5              		.eabi_attribute 21, 1
   6              		.eabi_attribute 23, 3
   7              		.eabi_attribute 24, 1
   8              		.eabi_attribute 25, 1
   9              		.eabi_attribute 26, 1
  10              		.eabi_attribute 30, 2
  11              		.eabi_attribute 34, 1
  12              		.eabi_attribute 18, 4
  13              		.thumb
  14              		.file	"vexprintf.c"
  15              		.text
  16              	.Ltext0:
  17              		.cfi_sections	.debug_frame
  18              		.section	.text.vex_printc,"ax",%progbits
  19              		.align	2
  20              		.p2align 4,,15
  21              		.thumb
  22              		.thumb_func
  23              		.type	vex_printc, %function
  24              	vex_printc:
  25              	.LFB65:
  26              		.file 1 "../convex/cortex/fw/vexprintf.c"
  27              		.loc 1 233 0
  28              		.cfi_startproc
  29              		@ args = 0, pretend = 0, frame = 8
  30              		@ frame_needed = 0, uses_anonymous_args = 0
  31              	.LVL0:
  32 0000 70B5     		push	{r4, r5, r6, lr}
  33              	.LCFI0:
  34              		.cfi_def_cfa_offset 16
  35              		.cfi_offset 4, -16
  36              		.cfi_offset 5, -12
  37              		.cfi_offset 6, -8
  38              		.cfi_offset 14, -4
  39              		.loc 1 235 0
  40 0002 C368     		ldr	r3, [r0, #12]
  41              		.loc 1 233 0
  42 0004 82B0     		sub	sp, sp, #8
  43              	.LCFI1:
  44              		.cfi_def_cfa_offset 24
  45              		.loc 1 235 0
  46 0006 002B     		cmp	r3, #0
  47              		.loc 1 233 0
  48 0008 0446     		mov	r4, r0
  49              		.loc 1 235 0
  50 000a 02DB     		blt	.L2
  51              		.loc 1 235 0 is_stmt 0 discriminator 1
  52 000c 0269     		ldr	r2, [r0, #16]
  53 000e 9342     		cmp	r3, r2
  54 0010 0ADD     		ble	.L1
  55              	.L2:
  56              		.loc 1 239 0 is_stmt 1
  57 0012 6368     		ldr	r3, [r4, #4]
ARM GAS  C:\Users\KE'OND~1\AppData\Local\Temp\ccZRf9ve.s 			page 2


  58 0014 53B1     		cbz	r3, .L4
  59              		.loc 1 240 0
  60 0016 1B68     		ldr	r3, [r3, #0]
  61 0018 1970     		strb	r1, [r3, #0]
  62              		.loc 1 241 0
  63 001a 6368     		ldr	r3, [r4, #4]
  64              		.loc 1 242 0
  65 001c 2169     		ldr	r1, [r4, #16]
  66              	.LVL1:
  67              		.loc 1 241 0
  68 001e 1A68     		ldr	r2, [r3, #0]
  69              		.loc 1 242 0
  70 0020 0131     		adds	r1, r1, #1
  71              		.loc 1 241 0
  72 0022 0132     		adds	r2, r2, #1
  73 0024 1A60     		str	r2, [r3, #0]
  74              		.loc 1 242 0
  75 0026 2161     		str	r1, [r4, #16]
  76              	.LVL2:
  77              	.L1:
  78              		.loc 1 283 0
  79 0028 02B0     		add	sp, sp, #8
  80 002a 70BD     		pop	{r4, r5, r6, pc}
  81              	.LVL3:
  82              	.L4:
  83              	.LBB7:
  84              	.LBB8:
  85              		.loc 1 246 0
  86 002c 204D     		ldr	r5, .L11
  87 002e A26D     		ldr	r2, [r4, #88]
  88 0030 E868     		ldr	r0, [r5, #12]
  89              	.LVL4:
  90 0032 821A     		subs	r2, r0, r2
  91              		.loc 1 249 0
  92 0034 1D2A     		cmp	r2, #29
  93              		.loc 1 246 0
  94 0036 E265     		str	r2, [r4, #92]
  95              		.loc 1 274 0
  96 0038 88BF     		it	hi
  97 003a A4F85430 		strhhi	r3, [r4, #84]	@ movhi
  98              		.loc 1 249 0
  99 003e 12D8     		bhi	.L8
 100              		.loc 1 252 0
 101 0040 082A     		cmp	r2, #8
 102              		.loc 1 256 0
 103 0042 B4F85430 		ldrh	r3, [r4, #84]
 104              		.loc 1 252 0
 105 0046 08D9     		bls	.L7
 106              		.loc 1 256 0
 107 0048 A3EB8203 		sub	r3, r3, r2, lsl #2
 108 004c 9BB2     		uxth	r3, r3
 109              		.loc 1 258 0
 110 004e 1804     		lsls	r0, r3, #16
 111 0050 03D5     		bpl	.L7
 112              		.loc 1 263 0
 113 0052 0123     		movs	r3, #1
 114 0054 A4F85430 		strh	r3, [r4, #84]	@ movhi
ARM GAS  C:\Users\KE'OND~1\AppData\Local\Temp\ccZRf9ve.s 			page 3


 115 0058 05E0     		b	.L8
 116              	.L7:
 117 005a 0133     		adds	r3, r3, #1
 118 005c 9BB2     		uxth	r3, r3
 119 005e 802B     		cmp	r3, #128
 120 0060 A4F85430 		strh	r3, [r4, #84]	@ movhi
 121 0064 0AD0     		beq	.L10
 122              	.LVL5:
 123              	.L8:
 124              		.loc 1 281 0
 125 0066 206E     		ldr	r0, [r4, #96]
 126              		.loc 1 280 0
 127 0068 2669     		ldr	r6, [r4, #16]
 128              		.loc 1 281 0
 129 006a 0368     		ldr	r3, [r0, #0]
 130              		.loc 1 277 0
 131 006c EA68     		ldr	r2, [r5, #12]
 132              		.loc 1 280 0
 133 006e 0136     		adds	r6, r6, #1
 134              		.loc 1 277 0
 135 0070 A265     		str	r2, [r4, #88]
 136              		.loc 1 280 0
 137 0072 2661     		str	r6, [r4, #16]
 138              		.loc 1 281 0
 139 0074 9B68     		ldr	r3, [r3, #8]
 140 0076 C9B2     		uxtb	r1, r1
 141 0078 9847     		blx	r3
 142              	.LVL6:
 143 007a D5E7     		b	.L1
 144              	.LVL7:
 145              	.L10:
 146              		.loc 1 268 0
 147 007c 4FF61843 		movw	r3, #64536
 148 0080 CFF6FF73 		movt	r3, 65535
 149 0084 03FB02F3 		mul	r3, r3, r2
 150 0088 44F6D350 		movw	r0, #19923
 151 008c 03F5EA43 		add	r3, r3, #29952
 152 0090 2F33     		adds	r3, r3, #47
 153 0092 C1F26200 		movt	r0, 4194
 154 0096 A0FB0320 		umull	r2, r0, r0, r3
 155 009a 8009     		lsrs	r0, r0, #6
 156 009c 0130     		adds	r0, r0, #1
 157 009e 0191     		str	r1, [sp, #4]
 158 00a0 FFF7FEFF 		bl	chThdSleep
 159              	.LVL8:
 160              		.loc 1 269 0
 161 00a4 0023     		movs	r3, #0
 162 00a6 A4F85430 		strh	r3, [r4, #84]	@ movhi
 163 00aa 0199     		ldr	r1, [sp, #4]
 164 00ac DBE7     		b	.L8
 165              	.L12:
 166 00ae 00BF     		.align	2
 167              	.L11:
 168 00b0 00000000 		.word	vtlist
 169              	.LBE8:
 170              	.LBE7:
 171              		.cfi_endproc
ARM GAS  C:\Users\KE'OND~1\AppData\Local\Temp\ccZRf9ve.s 			page 4


 172              	.LFE65:
 173              		.size	vex_printc, .-vex_printc
 174 00b4 AFF30080 		.section	.text.vex_prints,"ax",%progbits
 174      AFF30080 
 174      AFF30080 
 175              		.align	2
 176              		.p2align 4,,15
 177              		.thumb
 178              		.thumb_func
 179              		.type	vex_prints, %function
 180              	vex_prints:
 181              	.LFB66:
 182              		.loc 1 302 0
 183              		.cfi_startproc
 184              		@ args = 0, pretend = 0, frame = 0
 185              		@ frame_needed = 0, uses_anonymous_args = 0
 186              	.LVL9:
 187 0000 2DE9F843 		push	{r3, r4, r5, r6, r7, r8, r9, lr}
 188              	.LCFI2:
 189              		.cfi_def_cfa_offset 32
 190              		.cfi_offset 3, -32
 191              		.cfi_offset 4, -28
 192              		.cfi_offset 5, -24
 193              		.cfi_offset 6, -20
 194              		.cfi_offset 7, -16
 195              		.cfi_offset 8, -12
 196              		.cfi_offset 9, -8
 197              		.cfi_offset 14, -4
 198              		.loc 1 305 0
 199 0004 B2F10008 		subs	r8, r2, #0
 200              		.loc 1 302 0
 201 0008 0546     		mov	r5, r0
 202 000a 0C46     		mov	r4, r1
 203              		.loc 1 305 0
 204 000c 40DD     		ble	.L24
 205              	.LVL10:
 206              	.LBB9:
 207              		.loc 1 308 0 discriminator 1
 208 000e 0978     		ldrb	r1, [r1, #0]	@ zero_extendqisi2
 209              	.LVL11:
 210 0010 0029     		cmp	r1, #0
 211 0012 39D0     		beq	.L25
 212 0014 2246     		mov	r2, r4
 213              	.LVL12:
 214              		.loc 1 308 0 is_stmt 0
 215 0016 0020     		movs	r0, #0
 216              	.LVL13:
 217              	.L16:
 218              		.loc 1 308 0 discriminator 2
 219 0018 12F8017F 		ldrb	r7, [r2, #1]!	@ zero_extendqisi2
 220              		.loc 1 309 0 is_stmt 1 discriminator 2
 221 001c 0130     		adds	r0, r0, #1
 222              	.LVL14:
 223              		.loc 1 308 0 discriminator 2
 224 001e 002F     		cmp	r7, #0
 225 0020 FAD1     		bne	.L16
 226              		.loc 1 310 0
ARM GAS  C:\Users\KE'OND~1\AppData\Local\Temp\ccZRf9ve.s 			page 5


 227 0022 8045     		cmp	r8, r0
 228              		.loc 1 311 0
 229 0024 D8BF     		it	le
 230 0026 B846     		movle	r8, r7
 231              	.LVL15:
 232              		.loc 1 310 0
 233 0028 2FDC     		bgt	.L15
 234              	.LVL16:
 235              	.L17:
 236              		.loc 1 315 0
 237 002a 13F0020F 		tst	r3, #2
 238 002e 0CBF     		ite	eq
 239 0030 2027     		moveq	r7, #32
 240 0032 3027     		movne	r7, #48
 241              	.LVL17:
 242              	.LBE9:
 243              		.loc 1 317 0
 244 0034 13F00103 		ands	r3, r3, #1
 245              	.LVL18:
 246 0038 24D1     		bne	.L28
 247              		.loc 1 318 0 discriminator 1
 248 003a B8F1000F 		cmp	r8, #0
 249 003e 2BDD     		ble	.L29
 250              		.loc 1 318 0 is_stmt 0 discriminator 2
 251 0040 C146     		mov	r9, r8
 252              	.LVL19:
 253              	.L19:
 254              		.loc 1 319 0 is_stmt 1 discriminator 2
 255 0042 2846     		mov	r0, r5
 256 0044 3946     		mov	r1, r7
 257 0046 FFF7FEFF 		bl	vex_printc
 258              	.LVL20:
 259              		.loc 1 318 0 discriminator 2
 260 004a B9F10109 		subs	r9, r9, #1
 261              	.LVL21:
 262 004e F8D1     		bne	.L19
 263 0050 2178     		ldrb	r1, [r4, #0]	@ zero_extendqisi2
 264              		.loc 1 318 0 is_stmt 0
 265 0052 4646     		mov	r6, r8
 266 0054 C846     		mov	r8, r9
 267              	.LVL22:
 268              	.L37:
 269              		.loc 1 323 0 is_stmt 1 discriminator 2
 270 0056 39B1     		cbz	r1, .L38
 271              	.L21:
 272              		.loc 1 324 0 discriminator 2
 273 0058 2846     		mov	r0, r5
 274 005a FFF7FEFF 		bl	vex_printc
 275              	.LVL23:
 276              		.loc 1 323 0 discriminator 2
 277 005e 14F8011F 		ldrb	r1, [r4, #1]!	@ zero_extendqisi2
 278              		.loc 1 325 0 discriminator 2
 279 0062 0136     		adds	r6, r6, #1
 280              	.LVL24:
 281              		.loc 1 323 0 discriminator 2
 282 0064 0029     		cmp	r1, #0
 283 0066 F7D1     		bne	.L21
ARM GAS  C:\Users\KE'OND~1\AppData\Local\Temp\ccZRf9ve.s 			page 6


 284              	.L38:
 285              	.LVL25:
 286              		.loc 1 327 0 discriminator 1
 287 0068 B8F1000F 		cmp	r8, #0
 288 006c 07DD     		ble	.L22
 289              		.loc 1 327 0 is_stmt 0 discriminator 2
 290 006e 4446     		mov	r4, r8
 291              	.LVL26:
 292              	.L23:
 293              		.loc 1 328 0 is_stmt 1 discriminator 2
 294 0070 2846     		mov	r0, r5
 295 0072 3946     		mov	r1, r7
 296 0074 FFF7FEFF 		bl	vex_printc
 297              	.LVL27:
 298              		.loc 1 327 0 discriminator 2
 299 0078 013C     		subs	r4, r4, #1
 300              	.LVL28:
 301 007a F9D1     		bne	.L23
 302 007c 4644     		add	r6, r6, r8
 303              	.LVL29:
 304              	.L22:
 305              		.loc 1 332 0
 306 007e 3046     		mov	r0, r6
 307 0080 BDE8F883 		pop	{r3, r4, r5, r6, r7, r8, r9, pc}
 308              	.LVL30:
 309              	.L28:
 310              		.loc 1 303 0
 311 0084 0026     		movs	r6, #0
 312 0086 E6E7     		b	.L37
 313              	.LVL31:
 314              	.L25:
 315              	.LBB10:
 316              		.loc 1 308 0
 317 0088 0846     		mov	r0, r1
 318              	.LVL32:
 319              	.L15:
 320              		.loc 1 313 0
 321 008a C0EB0808 		rsb	r8, r0, r8
 322              	.LVL33:
 323 008e CCE7     		b	.L17
 324              	.LVL34:
 325              	.L24:
 326              	.LBE10:
 327              		.loc 1 303 0
 328 0090 2027     		movs	r7, #32
 329 0092 0026     		movs	r6, #0
 330 0094 0978     		ldrb	r1, [r1, #0]	@ zero_extendqisi2
 331              	.LVL35:
 332 0096 DEE7     		b	.L37
 333              	.LVL36:
 334              	.L29:
 335              		.loc 1 318 0
 336 0098 1E46     		mov	r6, r3
 337 009a DCE7     		b	.L37
 338              		.cfi_endproc
 339              	.LFE66:
 340              		.size	vex_prints, .-vex_prints
ARM GAS  C:\Users\KE'OND~1\AppData\Local\Temp\ccZRf9ve.s 			page 7


 341 009c AFF30080 		.section	.text.vex_printi,"ax",%progbits
 342              		.align	2
 343              		.p2align 4,,15
 344              		.thumb
 345              		.thumb_func
 346              		.type	vex_printi, %function
 347              	vex_printi:
 348              	.LFB67:
 349              		.loc 1 348 0
 350              		.cfi_startproc
 351              		@ args = 12, pretend = 0, frame = 8
 352              		@ frame_needed = 0, uses_anonymous_args = 0
 353              	.LVL37:
 354 0000 2DE9F043 		push	{r4, r5, r6, r7, r8, r9, lr}
 355              	.LCFI3:
 356              		.cfi_def_cfa_offset 28
 357              		.cfi_offset 4, -28
 358              		.cfi_offset 5, -24
 359              		.cfi_offset 6, -20
 360              		.cfi_offset 7, -16
 361              		.cfi_offset 8, -12
 362              		.cfi_offset 9, -8
 363              		.cfi_offset 14, -4
 364              		.loc 1 351 0
 365 0004 0C46     		mov	r4, r1
 366              	.LVL38:
 367              		.loc 1 348 0
 368 0006 83B0     		sub	sp, sp, #12
 369              	.LCFI4:
 370              		.cfi_def_cfa_offset 40
 371              		.loc 1 348 0
 372 0008 1946     		mov	r1, r3
 373              	.LVL39:
 374 000a 8046     		mov	r8, r0
 375 000c DDF82890 		ldr	r9, [sp, #40]
 376 0010 0B9B     		ldr	r3, [sp, #44]
 377              	.LVL40:
 378 0012 0C9E     		ldr	r6, [sp, #48]
 379              		.loc 1 353 0
 380 0014 002C     		cmp	r4, #0
 381 0016 4FD0     		beq	.L61
 382              		.loc 1 356 0
 383 0018 0031     		adds	r1, r1, #0
 384 001a 18BF     		it	ne
 385 001c 0121     		movne	r1, #1
 386              	.LVL41:
 387 001e 0A2A     		cmp	r2, #10
 388 0020 18BF     		it	ne
 389 0022 0021     		movne	r1, #0
 390 0024 0029     		cmp	r1, #0
 391 0026 3CD1     		bne	.L62
 392              	.L49:
 393              		.loc 1 350 0
 394 0028 0020     		movs	r0, #0
 395              	.LVL42:
 396              	.L41:
 397              		.loc 1 363 0
ARM GAS  C:\Users\KE'OND~1\AppData\Local\Temp\ccZRf9ve.s 			page 8


 398 002a 0021     		movs	r1, #0
 399              		.loc 1 362 0
 400 002c 08F12307 		add	r7, r8, #35
 401              	.LVL43:
 402              		.loc 1 363 0
 403 0030 88F82310 		strb	r1, [r8, #35]
 404              		.loc 1 365 0
 405 0034 94B1     		cbz	r4, .L42
 406              		.loc 1 347 0
 407 0036 08F12205 		add	r5, r8, #34
 408              		.loc 1 369 0
 409 003a A6F13A0E 		sub	lr, r6, #58
 410              	.LVL44:
 411              	.L44:
 412              		.loc 1 367 0
 413 003e B4FBF2F1 		udiv	r1, r4, r2
 414 0042 02FB1144 		mls	r4, r2, r1, r4
 415              	.LVL45:
 416              		.loc 1 368 0
 417 0046 092C     		cmp	r4, #9
 418              		.loc 1 369 0
 419 0048 C8BF     		it	gt
 420 004a 7444     		addgt	r4, r4, lr
 421              	.LVL46:
 422              		.loc 1 370 0
 423 004c 04F13006 		add	r6, r4, #48
 424 0050 2F46     		mov	r7, r5
 425              	.LVL47:
 426              		.loc 1 365 0
 427 0052 0C46     		mov	r4, r1
 428              	.LVL48:
 429              		.loc 1 370 0
 430 0054 05F80169 		strb	r6, [r5], #-1
 431              		.loc 1 365 0
 432 0058 0029     		cmp	r1, #0
 433 005a F0D1     		bne	.L44
 434              	.LVL49:
 435              	.L42:
 436              		.loc 1 374 0
 437 005c B0B1     		cbz	r0, .L45
 438              		.loc 1 376 0
 439 005e B9F1000F 		cmp	r9, #0
 440 0062 23D0     		beq	.L46
 441              		.loc 1 376 0 is_stmt 0 discriminator 1
 442 0064 9C07     		lsls	r4, r3, #30
 443 0066 21D5     		bpl	.L46
 444              		.loc 1 378 0 is_stmt 1
 445 0068 4046     		mov	r0, r8
 446              	.LVL50:
 447 006a 2D21     		movs	r1, #45
 448 006c 0193     		str	r3, [sp, #4]
 449 006e FFF7FEFF 		bl	vex_printc
 450              	.LVL51:
 451              		.loc 1 380 0
 452 0072 019B     		ldr	r3, [sp, #4]
 453 0074 09F1FF39 		add	r9, r9, #-1
 454              	.LVL52:
ARM GAS  C:\Users\KE'OND~1\AppData\Local\Temp\ccZRf9ve.s 			page 9


 455              		.loc 1 379 0
 456 0078 0124     		movs	r4, #1
 457              	.LVL53:
 458              	.L47:
 459              		.loc 1 394 0
 460 007a 4046     		mov	r0, r8
 461 007c 3946     		mov	r1, r7
 462 007e 4A46     		mov	r2, r9
 463 0080 FFF7FEFF 		bl	vex_prints
 464              	.LVL54:
 465              		.loc 1 395 0
 466 0084 0019     		adds	r0, r0, r4
 467 0086 03B0     		add	sp, sp, #12
 468 0088 BDE8F083 		pop	{r4, r5, r6, r7, r8, r9, pc}
 469              	.LVL55:
 470              	.L45:
 471              		.loc 1 389 0
 472 008c D8F80820 		ldr	r2, [r8, #8]
 473              	.LVL56:
 474              		.loc 1 350 0
 475 0090 0446     		mov	r4, r0
 476              		.loc 1 389 0
 477 0092 002A     		cmp	r2, #0
 478 0094 F1D0     		beq	.L47
 479              	.LVL57:
 480              		.loc 1 390 0
 481 0096 2B22     		movs	r2, #43
 482 0098 07F8012C 		strb	r2, [r7, #-1]
 483              		.loc 1 350 0
 484 009c 0446     		mov	r4, r0
 485              		.loc 1 390 0
 486 009e 013F     		subs	r7, r7, #1
 487              	.LVL58:
 488 00a0 EBE7     		b	.L47
 489              	.LVL59:
 490              	.L62:
 491              		.loc 1 356 0 discriminator 1
 492 00a2 002C     		cmp	r4, #0
 493 00a4 C0DA     		bge	.L49
 494              	.LVL60:
 495              		.loc 1 359 0
 496 00a6 6442     		negs	r4, r4
 497              	.LVL61:
 498              		.loc 1 358 0
 499 00a8 0120     		movs	r0, #1
 500              	.LVL62:
 501 00aa BEE7     		b	.L41
 502              	.LVL63:
 503              	.L46:
 504              		.loc 1 384 0
 505 00ac 2D22     		movs	r2, #45
 506              	.LVL64:
 507 00ae 07F8012C 		strb	r2, [r7, #-1]
 508              		.loc 1 350 0
 509 00b2 0024     		movs	r4, #0
 510              		.loc 1 384 0
 511 00b4 013F     		subs	r7, r7, #1
ARM GAS  C:\Users\KE'OND~1\AppData\Local\Temp\ccZRf9ve.s 			page 10


 512              	.LVL65:
 513 00b6 E0E7     		b	.L47
 514              	.LVL66:
 515              	.L61:
 516              		.loc 1 354 0
 517 00b8 0349     		ldr	r1, .L63
 518              	.LVL67:
 519 00ba 4A46     		mov	r2, r9
 520              	.LVL68:
 521              		.loc 1 395 0
 522 00bc 03B0     		add	sp, sp, #12
 523 00be BDE8F043 		pop	{r4, r5, r6, r7, r8, r9, lr}
 524              		.loc 1 354 0
 525 00c2 FFF7FEBF 		b	vex_prints
 526              	.LVL69:
 527              	.L64:
 528 00c6 00BF     		.align	2
 529              	.L63:
 530 00c8 00000000 		.word	.LC0
 531              		.cfi_endproc
 532              	.LFE67:
 533              		.size	vex_printi, .-vex_printi
 534              		.global	__aeabi_dcmplt
 535              		.global	__aeabi_dadd
 536              		.global	__aeabi_ui2d
 537              		.global	__aeabi_d2uiz
 538              		.global	__aeabi_dsub
 539              		.global	__aeabi_dmul
 540 00cc AFF30080 		.section	.text.vex_print,"ax",%progbits
 541              		.align	2
 542              		.p2align 4,,15
 543              		.thumb
 544              		.thumb_func
 545              		.type	vex_print, %function
 546              	vex_print:
 547              	.LFB70:
 548              		.loc 1 523 0
 549              		.cfi_startproc
 550              		@ args = 0, pretend = 0, frame = 40
 551              		@ frame_needed = 0, uses_anonymous_args = 0
 552              	.LVL70:
 553 0000 2DE9F04F 		push	{r4, r5, r6, r7, r8, r9, sl, fp, lr}
 554              	.LCFI5:
 555              		.cfi_def_cfa_offset 36
 556              		.cfi_offset 4, -36
 557              		.cfi_offset 5, -32
 558              		.cfi_offset 6, -28
 559              		.cfi_offset 7, -24
 560              		.cfi_offset 8, -20
 561              		.cfi_offset 9, -16
 562              		.cfi_offset 10, -12
 563              		.cfi_offset 11, -8
 564              		.cfi_offset 14, -4
 565 0004 8146     		mov	r9, r0
 566              		.loc 1 530 0
 567 0006 0020     		movs	r0, #0
 568              	.LVL71:
ARM GAS  C:\Users\KE'OND~1\AppData\Local\Temp\ccZRf9ve.s 			page 11


 569 0008 C9F80800 		str	r0, [r9, #8]
 570              		.loc 1 531 0
 571 000c C9F81000 		str	r0, [r9, #16]
 572              		.loc 1 523 0
 573 0010 0B46     		mov	r3, r1
 574              		.loc 1 533 0
 575 0012 0978     		ldrb	r1, [r1, #0]	@ zero_extendqisi2
 576              	.LVL72:
 577              		.loc 1 523 0
 578 0014 8FB0     		sub	sp, sp, #60
 579              	.LCFI6:
 580              		.cfi_def_cfa_offset 96
 581              		.loc 1 523 0
 582 0016 9346     		mov	fp, r2
 583              	.LVL73:
 584              		.loc 1 533 0
 585 0018 0029     		cmp	r1, #0
 586 001a 00F0EA81 		beq	.L109
 587              	.LBB18:
 588              	.LBB19:
 589              	.LBB20:
 590              	.LBB21:
 591              		.loc 1 463 0
 592 001e 4CF6CD48 		movw	r8, #52429
 593              	.LBE21:
 594              	.LBE20:
 595              	.LBE19:
 596              	.LBE18:
 597              		.loc 1 533 0
 598 0022 8246     		mov	sl, r0
 599              	.LBB37:
 600              	.LBB32:
 601              	.LBB27:
 602              	.LBB22:
 603              		.loc 1 463 0
 604 0024 CCF6CC48 		movt	r8, 52428
 605              	.LVL74:
 606              	.L107:
 607              	.LBE22:
 608              	.LBE27:
 609              	.LBE32:
 610              	.LBE37:
 611              		.loc 1 535 0
 612 0028 2529     		cmp	r1, #37
 613 002a 3FD1     		bne	.L67
 614              	.LVL75:
 615              		.loc 1 541 0
 616 002c 5978     		ldrb	r1, [r3, #1]	@ zero_extendqisi2
 617              		.loc 1 538 0
 618 002e 5C1C     		adds	r4, r3, #1
 619              	.LVL76:
 620              		.loc 1 541 0
 621 0030 0029     		cmp	r1, #0
 622 0032 46D0     		beq	.L66
 623              		.loc 1 543 0
 624 0034 2529     		cmp	r1, #37
 625 0036 3BD0     		beq	.L68
ARM GAS  C:\Users\KE'OND~1\AppData\Local\Temp\ccZRf9ve.s 			page 12


 626              		.loc 1 539 0
 627 0038 0025     		movs	r5, #0
 628              		.loc 1 545 0
 629 003a 2D29     		cmp	r1, #45
 630 003c 00F0B481 		beq	.L150
 631              	.LVL77:
 632              	.L69:
 633              		.loc 1 549 0
 634 0040 2B29     		cmp	r1, #43
 635 0042 00F0AB81 		beq	.L151
 636              	.L70:
 637              		.loc 1 553 0 discriminator 1
 638 0046 3029     		cmp	r1, #48
 639 0048 07D1     		bne	.L71
 640              		.loc 1 522 0
 641 004a 631C     		adds	r3, r4, #1
 642              	.LVL78:
 643              	.L72:
 644              		.loc 1 554 0
 645 004c 1C46     		mov	r4, r3
 646              	.LVL79:
 647              		.loc 1 553 0
 648 004e 13F8011B 		ldrb	r1, [r3], #1	@ zero_extendqisi2
 649              	.LVL80:
 650              		.loc 1 555 0
 651 0052 45F00205 		orr	r5, r5, #2
 652              	.LVL81:
 653              		.loc 1 553 0
 654 0056 3029     		cmp	r1, #48
 655 0058 F8D0     		beq	.L72
 656              	.L71:
 657              	.LVL82:
 658              		.loc 1 559 0
 659 005a A1F13007 		sub	r7, r1, #48
 660 005e 2E29     		cmp	r1, #46
 661 0060 18BF     		it	ne
 662 0062 092F     		cmpne	r7, #9
 663 0064 8CBF     		ite	hi
 664 0066 0027     		movhi	r7, #0
 665 0068 0127     		movls	r7, #1
 666 006a 36D8     		bhi	.L111
 667 006c 2A46     		mov	r2, r5
 668              	.LVL83:
 669 006e 0027     		movs	r7, #0
 670 0070 2346     		mov	r3, r4
 671 0072 0626     		movs	r6, #6
 672 0074 3D46     		mov	r5, r7
 673              	.LVL84:
 674 0076 9646     		mov	lr, r2
 675 0078 03E0     		b	.L74
 676              	.LVL85:
 677              	.L152:
 678              		.loc 1 575 0
 679 007a 00EB4406 		add	r6, r0, r4, lsl #1
 680              	.LVL86:
 681              	.L75:
 682 007e 13F8011F 		ldrb	r1, [r3, #1]!	@ zero_extendqisi2
ARM GAS  C:\Users\KE'OND~1\AppData\Local\Temp\ccZRf9ve.s 			page 13


 683              	.L74:
 684              		.loc 1 570 0
 685 0082 A1F13002 		sub	r2, r1, #48
 686              		.loc 1 563 0
 687 0086 2E29     		cmp	r1, #46
 688              		.loc 1 570 0
 689 0088 D0B2     		uxtb	r0, r2
 690 008a 1C46     		mov	r4, r3
 691              	.LVL87:
 692              		.loc 1 563 0
 693 008c 0BD0     		beq	.L112
 694              		.loc 1 570 0
 695 008e 0928     		cmp	r0, #9
 696 0090 00F28281 		bhi	.L147
 697              		.loc 1 574 0
 698 0094 06EB8604 		add	r4, r6, r6, lsl #2
 699              	.LVL88:
 700              		.loc 1 579 0
 701 0098 07EB8701 		add	r1, r7, r7, lsl #2
 702              	.LVL89:
 703              		.loc 1 572 0
 704 009c 002D     		cmp	r5, #0
 705 009e ECD1     		bne	.L152
 706              		.loc 1 580 0
 707 00a0 02EB4107 		add	r7, r2, r1, lsl #1
 708              	.LVL90:
 709 00a4 EBE7     		b	.L75
 710              	.LVL91:
 711              	.L112:
 712              		.loc 1 566 0
 713 00a6 0026     		movs	r6, #0
 714              	.LVL92:
 715              		.loc 1 565 0
 716 00a8 0125     		movs	r5, #1
 717              	.LVL93:
 718 00aa E8E7     		b	.L75
 719              	.LVL94:
 720              	.L67:
 721 00ac 1978     		ldrb	r1, [r3, #0]	@ zero_extendqisi2
 722              		.loc 1 535 0
 723 00ae 1C46     		mov	r4, r3
 724              	.LVL95:
 725              	.L68:
 726              		.loc 1 644 0
 727 00b0 4846     		mov	r0, r9
 728 00b2 FFF7FEFF 		bl	vex_printc
 729              	.LVL96:
 730              		.loc 1 645 0
 731 00b6 0AF1010A 		add	sl, sl, #1
 732              	.LVL97:
 733              	.L89:
 734              		.loc 1 533 0
 735 00ba 6178     		ldrb	r1, [r4, #1]	@ zero_extendqisi2
 736 00bc 631C     		adds	r3, r4, #1
 737              	.LVL98:
 738 00be 0029     		cmp	r1, #0
 739 00c0 B2D1     		bne	.L107
ARM GAS  C:\Users\KE'OND~1\AppData\Local\Temp\ccZRf9ve.s 			page 14


 740              	.LVL99:
 741              	.L66:
 742              		.loc 1 649 0
 743 00c2 D9F80430 		ldr	r3, [r9, #4]
 744 00c6 13B1     		cbz	r3, .L108
 745              		.loc 1 650 0
 746 00c8 1B68     		ldr	r3, [r3, #0]
 747 00ca 0022     		movs	r2, #0
 748              	.LVL100:
 749 00cc 1A70     		strb	r2, [r3, #0]
 750              	.LVL101:
 751              	.L108:
 752              	.LBB38:
 753              	.LBB39:
 754              		.loc 1 210 0
 755 00ce FFF7FEFF 		bl	chMtxUnlock
 756              	.LVL102:
 757              	.LBE39:
 758              	.LBE38:
 759              		.loc 1 656 0
 760 00d2 5046     		mov	r0, sl
 761 00d4 0FB0     		add	sp, sp, #60
 762 00d6 BDE8F08F 		pop	{r4, r5, r6, r7, r8, r9, sl, fp, pc}
 763              	.LVL103:
 764              	.L111:
 765              		.loc 1 537 0
 766 00da 0626     		movs	r6, #6
 767              	.LVL104:
 768              	.L73:
 769              		.loc 1 591 0
 770 00dc 6C29     		cmp	r1, #108
 771 00de 04BF     		itt	eq
 772 00e0 6178     		ldrbeq	r1, [r4, #1]	@ zero_extendqisi2
 773              		.loc 1 592 0
 774 00e2 0134     		addeq	r4, r4, #1
 775              	.LVL105:
 776              		.loc 1 593 0
 777 00e4 5839     		subs	r1, r1, #88
 778 00e6 2029     		cmp	r1, #32
 779 00e8 00F24A81 		bhi	.L79
 780 00ec DFE811F0 		tbh	[pc, r1, lsl #1]
 781              	.LVL106:
 782              	.L87:
 783 00f0 3F01     		.2byte	(.L80-.L87)/2
 784 00f2 4801     		.2byte	(.L79-.L87)/2
 785 00f4 4801     		.2byte	(.L79-.L87)/2
 786 00f6 4801     		.2byte	(.L79-.L87)/2
 787 00f8 4801     		.2byte	(.L79-.L87)/2
 788 00fa 4801     		.2byte	(.L79-.L87)/2
 789 00fc 4801     		.2byte	(.L79-.L87)/2
 790 00fe 4801     		.2byte	(.L79-.L87)/2
 791 0100 4801     		.2byte	(.L79-.L87)/2
 792 0102 4801     		.2byte	(.L79-.L87)/2
 793 0104 4801     		.2byte	(.L79-.L87)/2
 794 0106 2C01     		.2byte	(.L81-.L87)/2
 795 0108 2201     		.2byte	(.L82-.L87)/2
 796 010a 4801     		.2byte	(.L79-.L87)/2
ARM GAS  C:\Users\KE'OND~1\AppData\Local\Temp\ccZRf9ve.s 			page 15


 797 010c 5100     		.2byte	(.L83-.L87)/2
 798 010e 4801     		.2byte	(.L79-.L87)/2
 799 0110 4801     		.2byte	(.L79-.L87)/2
 800 0112 4801     		.2byte	(.L79-.L87)/2
 801 0114 4801     		.2byte	(.L79-.L87)/2
 802 0116 4801     		.2byte	(.L79-.L87)/2
 803 0118 4801     		.2byte	(.L79-.L87)/2
 804 011a 4801     		.2byte	(.L79-.L87)/2
 805 011c 4801     		.2byte	(.L79-.L87)/2
 806 011e 4801     		.2byte	(.L79-.L87)/2
 807 0120 4800     		.2byte	(.L84-.L87)/2
 808 0122 4801     		.2byte	(.L79-.L87)/2
 809 0124 4801     		.2byte	(.L79-.L87)/2
 810 0126 3300     		.2byte	(.L85-.L87)/2
 811 0128 4801     		.2byte	(.L79-.L87)/2
 812 012a 4800     		.2byte	(.L84-.L87)/2
 813 012c 4801     		.2byte	(.L79-.L87)/2
 814 012e 4801     		.2byte	(.L79-.L87)/2
 815 0130 2100     		.2byte	(.L86-.L87)/2
 816              	.L86:
 817              		.loc 1 607 0
 818 0132 6123     		movs	r3, #97
 819 0134 DBF80010 		ldr	r1, [fp, #0]
 820 0138 4846     		mov	r0, r9
 821 013a 0097     		str	r7, [sp, #0]
 822 013c 0195     		str	r5, [sp, #4]
 823 013e 0293     		str	r3, [sp, #8]
 824 0140 1022     		movs	r2, #16
 825              	.LVL107:
 826              	.L149:
 827              		.loc 1 616 0
 828 0142 0023     		movs	r3, #0
 829              	.L148:
 830 0144 FFF7FEFF 		bl	vex_printi
 831              	.LVL108:
 832              		.loc 1 617 0
 833 0148 0023     		movs	r3, #0
 834              		.loc 1 616 0
 835 014a 0BF1040B 		add	fp, fp, #4
 836              	.LVL109:
 837 014e 8244     		add	sl, sl, r0
 838              	.LVL110:
 839              		.loc 1 617 0
 840 0150 C9F80830 		str	r3, [r9, #8]
 841              		.loc 1 618 0
 842 0154 B1E7     		b	.L89
 843              	.LVL111:
 844              	.L85:
 845              	.LBB40:
 846              		.loc 1 597 0
 847 0156 DBF80010 		ldr	r1, [fp, #0]
 848              		.loc 1 598 0
 849 015a 40F20003 		movw	r3, #:lower16:.LC1
 850 015e C0F20003 		movt	r3, #:upper16:.LC1
 851 0162 0029     		cmp	r1, #0
 852 0164 08BF     		it	eq
 853 0166 1946     		moveq	r1, r3
ARM GAS  C:\Users\KE'OND~1\AppData\Local\Temp\ccZRf9ve.s 			page 16


 854 0168 4846     		mov	r0, r9
 855 016a 2B46     		mov	r3, r5
 856 016c 3A46     		mov	r2, r7
 857 016e FFF7FEFF 		bl	vex_prints
 858              	.LVL112:
 859              		.loc 1 599 0
 860 0172 0023     		movs	r3, #0
 861              		.loc 1 597 0
 862 0174 0BF1040B 		add	fp, fp, #4
 863              	.LVL113:
 864              		.loc 1 598 0
 865 0178 8244     		add	sl, sl, r0
 866              	.LVL114:
 867              		.loc 1 599 0
 868 017a C9F80830 		str	r3, [r9, #8]
 869              	.LBE40:
 870              		.loc 1 601 0
 871 017e 9CE7     		b	.L89
 872              	.LVL115:
 873              	.L84:
 874              		.loc 1 616 0
 875 0180 6123     		movs	r3, #97
 876 0182 DBF80010 		ldr	r1, [fp, #0]
 877 0186 4846     		mov	r0, r9
 878 0188 0097     		str	r7, [sp, #0]
 879 018a 0195     		str	r5, [sp, #4]
 880 018c 0293     		str	r3, [sp, #8]
 881 018e 0A22     		movs	r2, #10
 882 0190 D7E7     		b	.L149
 883              	.L83:
 884              		.loc 1 629 0
 885 0192 0BF1070B 		add	fp, fp, #7
 886              	.LVL116:
 887 0196 2BF0070B 		bic	fp, fp, #7
 888              	.LVL117:
 889 019a DBF80010 		ldr	r1, [fp, #0]
 890 019e DBF80420 		ldr	r2, [fp, #4]
 891 01a2 0891     		str	r1, [sp, #32]
 892 01a4 0592     		str	r2, [sp, #20]
 893              	.LBB41:
 894              	.LBB33:
 895              	.LBB28:
 896              	.LBB23:
 897              		.loc 1 413 0
 898 01a6 0846     		mov	r0, r1
 899              		.loc 1 410 0
 900 01a8 09F1240E 		add	lr, r9, #36
 901              		.loc 1 413 0
 902 01ac 1146     		mov	r1, r2
 903 01ae 0023     		movs	r3, #0
 904 01b0 0022     		movs	r2, #0
 905              	.LBE23:
 906              	.LBE28:
 907              	.LBE33:
 908              	.LBE41:
 909              		.loc 1 629 0
 910 01b2 0BF1080B 		add	fp, fp, #8
ARM GAS  C:\Users\KE'OND~1\AppData\Local\Temp\ccZRf9ve.s 			page 17


 911              	.LVL118:
 912              	.LBB42:
 913              	.LBB34:
 914              	.LBB29:
 915              	.LBB24:
 916              		.loc 1 410 0
 917 01b6 CDF824E0 		str	lr, [sp, #36]
 918              	.LVL119:
 919              		.loc 1 413 0
 920 01ba FFF7FEFF 		bl	__aeabi_dcmplt
 921              	.LVL120:
 922 01be 0028     		cmp	r0, #0
 923 01c0 40F0FF80 		bne	.L153
 924              		.loc 1 417 0
 925 01c4 D9F80830 		ldr	r3, [r9, #8]
 926 01c8 002B     		cmp	r3, #0
 927 01ca 00F0F780 		beq	.L113
 928              		.loc 1 418 0
 929 01ce 2B23     		movs	r3, #43
 930 01d0 89F82430 		strb	r3, [r9, #36]
 931 01d4 09F12503 		add	r3, r9, #37
 932 01d8 0693     		str	r3, [sp, #24]
 933              	.LVL121:
 934              	.L92:
 935              		.loc 1 423 0
 936 01da 072E     		cmp	r6, #7
 937 01dc 10D8     		bhi	.L93
 938              		.loc 1 424 0
 939 01de 40F20002 		movw	r2, #:lower16:.LANCHOR0
 940 01e2 C0F20002 		movt	r2, #:upper16:.LANCHOR0
 941 01e6 02EBC603 		add	r3, r2, r6, lsl #3
 942 01ea 0898     		ldr	r0, [sp, #32]
 943 01ec 0599     		ldr	r1, [sp, #20]
 944 01ee D3E90023 		ldrd	r2, [r3]
 945 01f2 FFF7FEFF 		bl	__aeabi_dadd
 946              	.LVL122:
 947 01f6 0890     		str	r0, [sp, #32]
 948 01f8 0591     		str	r1, [sp, #20]
 949              	.LVL123:
 950              		.loc 1 430 0
 951 01fa 002E     		cmp	r6, #0
 952 01fc 00F0F280 		beq	.L114
 953              	.LVL124:
 954              	.L93:
 955              		.loc 1 410 0
 956 0200 0023     		movs	r3, #0
 957 0202 0120     		movs	r0, #1
 958              	.L95:
 959              		.loc 1 430 0
 960 0204 0133     		adds	r3, r3, #1
 961              		.loc 1 431 0
 962 0206 00EB8000 		add	r0, r0, r0, lsl #2
 963              		.loc 1 430 0
 964 020a 9BB2     		uxth	r3, r3
 965              		.loc 1 431 0
 966 020c 4000     		lsls	r0, r0, #1
 967              	.LVL125:
ARM GAS  C:\Users\KE'OND~1\AppData\Local\Temp\ccZRf9ve.s 			page 18


 968              		.loc 1 430 0
 969 020e 9E42     		cmp	r6, r3
 970 0210 F8D8     		bhi	.L95
 971 0212 FFF7FEFF 		bl	__aeabi_ui2d
 972              	.LVL126:
 973 0216 CDE90A01 		strd	r0, [sp, #40]
 974              	.L94:
 975              		.loc 1 433 0
 976 021a 0898     		ldr	r0, [sp, #32]
 977 021c 0599     		ldr	r1, [sp, #20]
 978 021e FFF7FEFF 		bl	__aeabi_d2uiz
 979              	.LVL127:
 980              		.loc 1 439 0
 981 0222 0023     		movs	r3, #0
 982 0224 0246     		mov	r2, r0
 983 0226 0028     		cmp	r0, #0
 984 0228 00F0C280 		beq	.L98
 985              	.LVL128:
 986              	.L96:
 987              		.loc 1 440 0
 988 022c A8FB02E1 		umull	lr, r1, r8, r2
 989 0230 C908     		lsrs	r1, r1, #3
 990 0232 01EB810C 		add	ip, r1, r1, lsl #2
 991 0236 A2EB4C02 		sub	r2, r2, ip, lsl #1
 992 023a 09EB030E 		add	lr, r9, r3
 993 023e 02F1300C 		add	ip, r2, #48
 994 0242 0133     		adds	r3, r3, #1
 995              		.loc 1 439 0
 996 0244 0A46     		mov	r2, r1
 997              		.loc 1 440 0
 998 0246 8EF814C0 		strb	ip, [lr, #20]
 999 024a 9BB2     		uxth	r3, r3
 1000              	.LVL129:
 1001              		.loc 1 439 0
 1002 024c 0029     		cmp	r1, #0
 1003 024e EDD1     		bne	.L96
 1004              		.loc 1 440 0
 1005 0250 9E46     		mov	lr, r3
 1006              		.loc 1 445 0
 1007 0252 002B     		cmp	r3, #0
 1008 0254 00F0AC80 		beq	.L98
 1009 0258 069A     		ldr	r2, [sp, #24]
 1010              	.LVL130:
 1011              	.L99:
 1012              		.loc 1 449 0
 1013 025a 09EB0301 		add	r1, r9, r3
 1014 025e C97C     		ldrb	r1, [r1, #19]	@ zero_extendqisi2
 1015              		.loc 1 450 0
 1016 0260 013B     		subs	r3, r3, #1
 1017 0262 9BB2     		uxth	r3, r3
 1018              		.loc 1 449 0
 1019 0264 02F8011B 		strb	r1, [r2], #1
 1020              	.LVL131:
 1021              		.loc 1 448 0
 1022 0268 002B     		cmp	r3, #0
 1023 026a F6D1     		bne	.L99
 1024              		.loc 1 522 0
ARM GAS  C:\Users\KE'OND~1\AppData\Local\Temp\ccZRf9ve.s 			page 19


 1025 026c 0EF1FF3E 		add	lr, lr, #-1
 1026 0270 1FFA8EFC 		uxth	ip, lr
 1027 0274 0699     		ldr	r1, [sp, #24]
 1028 0276 0CF1010C 		add	ip, ip, #1
 1029 027a 8C44     		add	ip, r1, ip
 1030              	.LVL132:
 1031              	.L97:
 1032              		.loc 1 455 0
 1033 027c 002E     		cmp	r6, #0
 1034 027e 4DD0     		beq	.L100
 1035              		.loc 1 434 0
 1036 0280 CDF810C0 		str	ip, [sp, #16]
 1037 0284 FFF7FEFF 		bl	__aeabi_ui2d
 1038              	.LVL133:
 1039 0288 089A     		ldr	r2, [sp, #32]
 1040 028a 059B     		ldr	r3, [sp, #20]
 1041 028c CDE90601 		strd	r0, [sp, #24]
 1042 0290 1046     		mov	r0, r2
 1043 0292 1946     		mov	r1, r3
 1044 0294 DDE90623 		ldrd	r2, [sp, #24]
 1045 0298 FFF7FEFF 		bl	__aeabi_dsub
 1046              	.LVL134:
 1047 029c DDE90A23 		ldrd	r2, [sp, #40]
 1048 02a0 FFF7FEFF 		bl	__aeabi_dmul
 1049              	.LVL135:
 1050 02a4 FFF7FEFF 		bl	__aeabi_d2uiz
 1051              	.LVL136:
 1052              		.loc 1 457 0
 1053 02a8 DDF810C0 		ldr	ip, [sp, #16]
 1054              	.LVL137:
 1055 02ac 2E23     		movs	r3, #46
 1056 02ae 8CF80030 		strb	r3, [ip, #0]
 1057              	.LVL138:
 1058              		.loc 1 462 0
 1059 02b2 0028     		cmp	r0, #0
 1060 02b4 00F09F80 		beq	.L116
 1061 02b8 0023     		movs	r3, #0
 1062              	.LVL139:
 1063              	.L102:
 1064              		.loc 1 463 0
 1065 02ba A8FB00E2 		umull	lr, r2, r8, r0
 1066 02be D208     		lsrs	r2, r2, #3
 1067 02c0 02EB820E 		add	lr, r2, r2, lsl #2
 1068 02c4 A0EB4E00 		sub	r0, r0, lr, lsl #1
 1069 02c8 09EB0301 		add	r1, r9, r3
 1070 02cc 00F1300E 		add	lr, r0, #48
 1071 02d0 0133     		adds	r3, r3, #1
 1072              		.loc 1 462 0
 1073 02d2 1046     		mov	r0, r2
 1074              		.loc 1 463 0
 1075 02d4 81F814E0 		strb	lr, [r1, #20]
 1076 02d8 9BB2     		uxth	r3, r3
 1077              	.LVL140:
 1078              		.loc 1 462 0
 1079 02da 002A     		cmp	r2, #0
 1080 02dc EDD1     		bne	.L102
 1081 02de 1846     		mov	r0, r3
ARM GAS  C:\Users\KE'OND~1\AppData\Local\Temp\ccZRf9ve.s 			page 20


 1082              	.LVL141:
 1083              	.L101:
 1084              		.loc 1 469 0
 1085 02e0 8642     		cmp	r6, r0
 1086 02e2 07D9     		bls	.L103
 1087              		.loc 1 470 0
 1088 02e4 3020     		movs	r0, #48
 1089              	.LVL142:
 1090              	.L130:
 1091 02e6 591C     		adds	r1, r3, #1
 1092 02e8 09EB0302 		add	r2, r9, r3
 1093 02ec 8BB2     		uxth	r3, r1
 1094              	.LVL143:
 1095              		.loc 1 469 0
 1096 02ee 9E42     		cmp	r6, r3
 1097              		.loc 1 470 0
 1098 02f0 1075     		strb	r0, [r2, #20]
 1099              		.loc 1 469 0
 1100 02f2 F8D8     		bhi	.L130
 1101              	.LVL144:
 1102              	.L103:
 1103              		.loc 1 457 0
 1104 02f4 0CF10100 		add	r0, ip, #1
 1105 02f8 1A46     		mov	r2, r3
 1106              		.loc 1 474 0
 1107 02fa 002B     		cmp	r3, #0
 1108 02fc 6CD0     		beq	.L154
 1109              	.LVL145:
 1110              	.L106:
 1111              		.loc 1 478 0
 1112 02fe 09EB0201 		add	r1, r9, r2
 1113 0302 C97C     		ldrb	r1, [r1, #19]	@ zero_extendqisi2
 1114              		.loc 1 479 0
 1115 0304 013A     		subs	r2, r2, #1
 1116 0306 92B2     		uxth	r2, r2
 1117              		.loc 1 478 0
 1118 0308 0CF8011F 		strb	r1, [ip, #1]!
 1119              	.LVL146:
 1120              		.loc 1 477 0
 1121 030c 002A     		cmp	r2, #0
 1122 030e F6D1     		bne	.L106
 1123              		.loc 1 522 0
 1124 0310 013B     		subs	r3, r3, #1
 1125 0312 1FFA83FC 		uxth	ip, r3
 1126 0316 0CF1010C 		add	ip, ip, #1
 1127 031a 8444     		add	ip, r0, ip
 1128              	.LVL147:
 1129              	.L100:
 1130              		.loc 1 485 0
 1131 031c 0026     		movs	r6, #0
 1132              	.LVL148:
 1133 031e 8CF80060 		strb	r6, [ip, #0]
 1134              	.LBE24:
 1135              	.LBE29:
 1136              		.loc 1 507 0
 1137 0322 4846     		mov	r0, r9
 1138 0324 0999     		ldr	r1, [sp, #36]
ARM GAS  C:\Users\KE'OND~1\AppData\Local\Temp\ccZRf9ve.s 			page 21


 1139 0326 3A46     		mov	r2, r7
 1140 0328 2B46     		mov	r3, r5
 1141 032a FFF7FEFF 		bl	vex_prints
 1142              	.LVL149:
 1143              	.LBE34:
 1144              	.LBE42:
 1145              		.loc 1 630 0
 1146 032e C9F80860 		str	r6, [r9, #8]
 1147              		.loc 1 632 0
 1148 0332 C2E6     		b	.L89
 1149              	.LVL150:
 1150              	.L82:
 1151              		.loc 1 603 0
 1152 0334 6123     		movs	r3, #97
 1153 0336 DBF80010 		ldr	r1, [fp, #0]
 1154 033a 4846     		mov	r0, r9
 1155 033c 0293     		str	r3, [sp, #8]
 1156 033e 0097     		str	r7, [sp, #0]
 1157 0340 0195     		str	r5, [sp, #4]
 1158 0342 0A22     		movs	r2, #10
 1159 0344 0123     		movs	r3, #1
 1160 0346 FDE6     		b	.L148
 1161              	.L81:
 1162              		.loc 1 623 0
 1163 0348 2B46     		mov	r3, r5
 1164              		.loc 1 621 0
 1165 034a DBF80050 		ldr	r5, [fp, #0]
 1166              	.LVL151:
 1167              		.loc 1 622 0
 1168 034e 0026     		movs	r6, #0
 1169              	.LVL152:
 1170              		.loc 1 623 0
 1171 0350 4846     		mov	r0, r9
 1172 0352 0DA9     		add	r1, sp, #52
 1173 0354 3A46     		mov	r2, r7
 1174              		.loc 1 621 0
 1175 0356 8DF83450 		strb	r5, [sp, #52]
 1176              		.loc 1 622 0
 1177 035a 8DF83560 		strb	r6, [sp, #53]
 1178              		.loc 1 623 0
 1179 035e FFF7FEFF 		bl	vex_prints
 1180              	.LVL153:
 1181              		.loc 1 621 0
 1182 0362 0BF1040B 		add	fp, fp, #4
 1183              	.LVL154:
 1184              		.loc 1 623 0
 1185 0366 8244     		add	sl, sl, r0
 1186              	.LVL155:
 1187              		.loc 1 624 0
 1188 0368 C9F80860 		str	r6, [r9, #8]
 1189              		.loc 1 625 0
 1190 036c A5E6     		b	.L89
 1191              	.LVL156:
 1192              	.L80:
 1193              		.loc 1 611 0
 1194 036e 4123     		movs	r3, #65
 1195 0370 DBF80010 		ldr	r1, [fp, #0]
ARM GAS  C:\Users\KE'OND~1\AppData\Local\Temp\ccZRf9ve.s 			page 22


 1196 0374 4846     		mov	r0, r9
 1197 0376 0097     		str	r7, [sp, #0]
 1198 0378 0195     		str	r5, [sp, #4]
 1199 037a 0293     		str	r3, [sp, #8]
 1200 037c 1022     		movs	r2, #16
 1201 037e E0E6     		b	.L149
 1202              	.L79:
 1203              		.loc 1 635 0
 1204 0380 2521     		movs	r1, #37
 1205 0382 4846     		mov	r0, r9
 1206 0384 FFF7FEFF 		bl	vex_printc
 1207              	.LVL157:
 1208              		.loc 1 636 0
 1209 0388 4846     		mov	r0, r9
 1210 038a 2178     		ldrb	r1, [r4, #0]	@ zero_extendqisi2
 1211 038c FFF7FEFF 		bl	vex_printc
 1212              	.LVL158:
 1213              		.loc 1 637 0
 1214 0390 0023     		movs	r3, #0
 1215 0392 C9F80830 		str	r3, [r9, #8]
 1216              		.loc 1 638 0
 1217 0396 90E6     		b	.L89
 1218              	.LVL159:
 1219              	.L147:
 1220 0398 7546     		mov	r5, lr
 1221              	.LVL160:
 1222 039a 9FE6     		b	.L73
 1223              	.LVL161:
 1224              	.L151:
 1225              		.loc 1 551 0
 1226 039c 0123     		movs	r3, #1
 1227 039e C9F80830 		str	r3, [r9, #8]
 1228 03a2 6178     		ldrb	r1, [r4, #1]	@ zero_extendqisi2
 1229              		.loc 1 550 0
 1230 03a4 E418     		adds	r4, r4, r3
 1231              	.LVL162:
 1232 03a6 4EE6     		b	.L70
 1233              	.LVL163:
 1234              	.L150:
 1235              		.loc 1 546 0
 1236 03a8 9C1C     		adds	r4, r3, #2
 1237              	.LVL164:
 1238 03aa 9978     		ldrb	r1, [r3, #2]	@ zero_extendqisi2
 1239              		.loc 1 547 0
 1240 03ac 0125     		movs	r5, #1
 1241 03ae 47E6     		b	.L69
 1242              	.LVL165:
 1243              	.L98:
 1244              	.LBB43:
 1245              	.LBB35:
 1246              	.LBB30:
 1247              	.LBB25:
 1248              		.loc 1 446 0
 1249 03b0 DDF818C0 		ldr	ip, [sp, #24]
 1250 03b4 3023     		movs	r3, #48
 1251 03b6 0CF8013B 		strb	r3, [ip], #1
 1252              	.LVL166:
ARM GAS  C:\Users\KE'OND~1\AppData\Local\Temp\ccZRf9ve.s 			page 23


 1253 03ba 5FE7     		b	.L97
 1254              	.LVL167:
 1255              	.L113:
 1256              		.loc 1 410 0
 1257 03bc 0999     		ldr	r1, [sp, #36]
 1258 03be 0691     		str	r1, [sp, #24]
 1259 03c0 0BE7     		b	.L92
 1260              	.L153:
 1261              		.loc 1 415 0
 1262 03c2 059A     		ldr	r2, [sp, #20]
 1263              		.loc 1 414 0
 1264 03c4 2D23     		movs	r3, #45
 1265 03c6 09F12501 		add	r1, r9, #37
 1266              		.loc 1 415 0
 1267 03ca 02F10042 		add	r2, r2, #-2147483648
 1268              		.loc 1 414 0
 1269 03ce 89F82430 		strb	r3, [r9, #36]
 1270 03d2 0691     		str	r1, [sp, #24]
 1271              	.LVL168:
 1272              		.loc 1 415 0
 1273 03d4 0592     		str	r2, [sp, #20]
 1274              	.LVL169:
 1275 03d6 00E7     		b	.L92
 1276              	.LVL170:
 1277              	.L154:
 1278              		.loc 1 475 0
 1279 03d8 3023     		movs	r3, #48
 1280 03da 8CF80130 		strb	r3, [ip, #1]
 1281 03de 0CF1020C 		add	ip, ip, #2
 1282              	.LVL171:
 1283 03e2 9BE7     		b	.L100
 1284              	.LVL172:
 1285              	.L114:
 1286              		.loc 1 430 0
 1287 03e4 0023     		movs	r3, #0
 1288 03e6 0022     		movs	r2, #0
 1289 03e8 C3F6F073 		movt	r3, 16368
 1290 03ec CDE90A23 		strd	r2, [sp, #40]
 1291 03f0 13E7     		b	.L94
 1292              	.LVL173:
 1293              	.L109:
 1294              	.LBE25:
 1295              	.LBE30:
 1296              	.LBE35:
 1297              	.LBE43:
 1298              		.loc 1 527 0
 1299 03f2 8A46     		mov	sl, r1
 1300 03f4 65E6     		b	.L66
 1301              	.LVL174:
 1302              	.L116:
 1303              	.LBB44:
 1304              	.LBB36:
 1305              	.LBB31:
 1306              	.LBB26:
 1307              		.loc 1 461 0
 1308 03f6 0346     		mov	r3, r0
 1309 03f8 72E7     		b	.L101
ARM GAS  C:\Users\KE'OND~1\AppData\Local\Temp\ccZRf9ve.s 			page 24


 1310              	.LBE26:
 1311              	.LBE31:
 1312              	.LBE36:
 1313              	.LBE44:
 1314              		.cfi_endproc
 1315              	.LFE70:
 1316              		.size	vex_print, .-vex_print
 1317 03fa 00BFAFF3 		.section	.text.vex_print_acquire,"ax",%progbits
 1317      0080
 1318              		.align	2
 1319              		.p2align 4,,15
 1320              		.global	vex_print_acquire
 1321              		.thumb
 1322              		.thumb_func
 1323              		.type	vex_print_acquire, %function
 1324              	vex_print_acquire:
 1325              	.LFB63:
 1326              		.loc 1 176 0
 1327              		.cfi_startproc
 1328              		@ args = 0, pretend = 0, frame = 0
 1329              		@ frame_needed = 0, uses_anonymous_args = 0
 1330              	.LVL175:
 1331 0000 70B5     		push	{r4, r5, r6, lr}
 1332              	.LCFI7:
 1333              		.cfi_def_cfa_offset 16
 1334              		.cfi_offset 4, -16
 1335              		.cfi_offset 5, -12
 1336              		.cfi_offset 6, -8
 1337              		.cfi_offset 14, -4
 1338              		.loc 1 177 0
 1339 0002 0668     		ldr	r6, [r0, #0]
 1340              		.loc 1 176 0
 1341 0004 0446     		mov	r4, r0
 1342 0006 00F14405 		add	r5, r0, #68
 1343              		.loc 1 177 0
 1344 000a 5EB9     		cbnz	r6, .L156
 1345              		.loc 1 179 0
 1346 000c 0123     		movs	r3, #1
 1347 000e 0546     		mov	r5, r0
 1348 0010 45F8443B 		str	r3, [r5], #68
 1349              		.loc 1 182 0
 1350 0014 2846     		mov	r0, r5
 1351              	.LVL176:
 1352 0016 FFF7FEFF 		bl	chMtxInit
 1353              	.LVL177:
 1354              		.loc 1 189 0
 1355 001a 054B     		ldr	r3, .L159
 1356              		.loc 1 187 0
 1357 001c A4F85460 		strh	r6, [r4, #84]	@ movhi
 1358              		.loc 1 188 0
 1359 0020 A665     		str	r6, [r4, #88]
 1360              		.loc 1 189 0
 1361 0022 2366     		str	r3, [r4, #96]
 1362              	.L156:
 1363              		.loc 1 193 0
 1364 0024 2846     		mov	r0, r5
 1365              		.loc 1 197 0
ARM GAS  C:\Users\KE'OND~1\AppData\Local\Temp\ccZRf9ve.s 			page 25


 1366 0026 BDE87040 		pop	{r4, r5, r6, lr}
 1367              		.loc 1 193 0
 1368 002a FFF7FEBF 		b	chMtxLock
 1369              	.LVL178:
 1370              	.L160:
 1371 002e 00BF     		.align	2
 1372              	.L159:
 1373 0030 00000000 		.word	SD1
 1374              		.cfi_endproc
 1375              	.LFE63:
 1376              		.size	vex_print_acquire, .-vex_print_acquire
 1377 0034 AFF30080 		.section	.text.vex_print_release,"ax",%progbits
 1377      AFF30080 
 1377      AFF30080 
 1378              		.align	2
 1379              		.p2align 4,,15
 1380              		.global	vex_print_release
 1381              		.thumb
 1382              		.thumb_func
 1383              		.type	vex_print_release, %function
 1384              	vex_print_release:
 1385              	.LFB64:
 1386              		.loc 1 206 0
 1387              		.cfi_startproc
 1388              		@ args = 0, pretend = 0, frame = 0
 1389              		@ frame_needed = 0, uses_anonymous_args = 0
 1390              		@ link register save eliminated.
 1391              	.LVL179:
 1392              		.loc 1 214 0
 1393              		.loc 1 210 0
 1394 0000 FFF7FEBF 		b	chMtxUnlock
 1395              	.LVL180:
 1396              		.cfi_endproc
 1397              	.LFE64:
 1398              		.size	vex_print_release, .-vex_print_release
 1399 0004 AFF30080 		.section	.text.vex_printf,"ax",%progbits
 1399      AFF30080 
 1399      AFF30080 
 1400              		.align	2
 1401              		.p2align 4,,15
 1402              		.global	vex_printf
 1403              		.thumb
 1404              		.thumb_func
 1405              		.type	vex_printf, %function
 1406              	vex_printf:
 1407              	.LFB71:
 1408              		.loc 1 668 0
 1409              		.cfi_startproc
 1410              		@ args = 4, pretend = 16, frame = 8
 1411              		@ frame_needed = 0, uses_anonymous_args = 1
 1412              	.LVL181:
 1413 0000 0FB4     		push	{r0, r1, r2, r3}
 1414              	.LCFI8:
 1415              		.cfi_def_cfa_offset 16
 1416              		.cfi_offset 0, -16
 1417              		.cfi_offset 1, -12
 1418              		.cfi_offset 2, -8
ARM GAS  C:\Users\KE'OND~1\AppData\Local\Temp\ccZRf9ve.s 			page 26


 1419              		.cfi_offset 3, -4
 1420 0002 70B5     		push	{r4, r5, r6, lr}
 1421              	.LCFI9:
 1422              		.cfi_def_cfa_offset 32
 1423              		.cfi_offset 4, -32
 1424              		.cfi_offset 5, -28
 1425              		.cfi_offset 6, -24
 1426              		.cfi_offset 14, -20
 1427              	.LBB47:
 1428              	.LBB48:
 1429              		.loc 1 177 0
 1430 0004 124C     		ldr	r4, .L166
 1431              	.LBE48:
 1432              	.LBE47:
 1433              		.loc 1 668 0
 1434 0006 82B0     		sub	sp, sp, #8
 1435              	.LCFI10:
 1436              		.cfi_def_cfa_offset 40
 1437              	.LBB51:
 1438              	.LBB49:
 1439              		.loc 1 177 0
 1440 0008 2568     		ldr	r5, [r4, #0]
 1441 000a ADB1     		cbz	r5, .L165
 1442 000c 114E     		ldr	r6, .L166+4
 1443              	.L163:
 1444              		.loc 1 193 0
 1445 000e 1248     		ldr	r0, .L166+8
 1446 0010 FFF7FEFF 		bl	chMtxLock
 1447              	.LVL182:
 1448              	.LBE49:
 1449              	.LBE51:
 1450              		.loc 1 673 0
 1451 0014 0025     		movs	r5, #0
 1452              		.loc 1 677 0
 1453 0016 07AB     		add	r3, sp, #28
 1454              		.loc 1 673 0
 1455 0018 6560     		str	r5, [r4, #4]
 1456              		.loc 1 678 0
 1457 001a 0699     		ldr	r1, [sp, #24]
 1458              		.loc 1 674 0
 1459 001c 4FF0FF35 		mov	r5, #-1
 1460              		.loc 1 678 0
 1461 0020 1A46     		mov	r2, r3
 1462 0022 0B48     		ldr	r0, .L166
 1463              		.loc 1 674 0
 1464 0024 E560     		str	r5, [r4, #12]
 1465              		.loc 1 675 0
 1466 0026 2666     		str	r6, [r4, #96]
 1467              		.loc 1 677 0
 1468 0028 0193     		str	r3, [sp, #4]
 1469              		.loc 1 678 0
 1470 002a FFF7FEFF 		bl	vex_print
 1471              	.LVL183:
 1472              		.loc 1 679 0
 1473 002e 02B0     		add	sp, sp, #8
 1474 0030 BDE87040 		pop	{r4, r5, r6, lr}
 1475 0034 04B0     		add	sp, sp, #16
ARM GAS  C:\Users\KE'OND~1\AppData\Local\Temp\ccZRf9ve.s 			page 27


 1476 0036 7047     		bx	lr
 1477              	.L165:
 1478              	.LBB52:
 1479              	.LBB50:
 1480              		.loc 1 179 0
 1481 0038 2046     		mov	r0, r4
 1482 003a 0123     		movs	r3, #1
 1483              		.loc 1 189 0
 1484 003c 054E     		ldr	r6, .L166+4
 1485              		.loc 1 179 0
 1486 003e 40F8443B 		str	r3, [r0], #68
 1487              		.loc 1 182 0
 1488 0042 FFF7FEFF 		bl	chMtxInit
 1489              	.LVL184:
 1490              		.loc 1 187 0
 1491 0046 A4F85450 		strh	r5, [r4, #84]	@ movhi
 1492              		.loc 1 188 0
 1493 004a A565     		str	r5, [r4, #88]
 1494              		.loc 1 189 0
 1495 004c 2666     		str	r6, [r4, #96]
 1496 004e DEE7     		b	.L163
 1497              	.L167:
 1498              		.align	2
 1499              	.L166:
 1500 0050 00000000 		.word	.LANCHOR1
 1501 0054 00000000 		.word	SD1
 1502 0058 44000000 		.word	.LANCHOR1+68
 1503              	.LBE50:
 1504              	.LBE52:
 1505              		.cfi_endproc
 1506              	.LFE71:
 1507              		.size	vex_printf, .-vex_printf
 1508 005c AFF30080 		.section	.text.vex_chprintf,"ax",%progbits
 1509              		.align	2
 1510              		.p2align 4,,15
 1511              		.global	vex_chprintf
 1512              		.thumb
 1513              		.thumb_func
 1514              		.type	vex_chprintf, %function
 1515              	vex_chprintf:
 1516              	.LFB72:
 1517              		.loc 1 692 0
 1518              		.cfi_startproc
 1519              		@ args = 4, pretend = 12, frame = 8
 1520              		@ frame_needed = 0, uses_anonymous_args = 1
 1521              	.LVL185:
 1522 0000 0EB4     		push	{r1, r2, r3}
 1523              	.LCFI11:
 1524              		.cfi_def_cfa_offset 12
 1525              		.cfi_offset 1, -12
 1526              		.cfi_offset 2, -8
 1527              		.cfi_offset 3, -4
 1528 0002 70B5     		push	{r4, r5, r6, lr}
 1529              	.LCFI12:
 1530              		.cfi_def_cfa_offset 28
 1531              		.cfi_offset 4, -28
 1532              		.cfi_offset 5, -24
ARM GAS  C:\Users\KE'OND~1\AppData\Local\Temp\ccZRf9ve.s 			page 28


 1533              		.cfi_offset 6, -20
 1534              		.cfi_offset 14, -16
 1535              	.LBB55:
 1536              	.LBB56:
 1537              		.loc 1 177 0
 1538 0004 124C     		ldr	r4, .L170
 1539              	.LBE56:
 1540              	.LBE55:
 1541              		.loc 1 692 0
 1542 0006 83B0     		sub	sp, sp, #12
 1543              	.LCFI13:
 1544              		.cfi_def_cfa_offset 40
 1545              	.LBB59:
 1546              	.LBB57:
 1547              		.loc 1 177 0
 1548 0008 2568     		ldr	r5, [r4, #0]
 1549              	.LBE57:
 1550              	.LBE59:
 1551              		.loc 1 692 0
 1552 000a 0646     		mov	r6, r0
 1553              	.LBB60:
 1554              	.LBB58:
 1555              		.loc 1 177 0
 1556 000c 55B9     		cbnz	r5, .L169
 1557              		.loc 1 179 0
 1558 000e 0123     		movs	r3, #1
 1559 0010 2046     		mov	r0, r4
 1560              	.LVL186:
 1561 0012 40F8443B 		str	r3, [r0], #68
 1562              		.loc 1 182 0
 1563 0016 FFF7FEFF 		bl	chMtxInit
 1564              	.LVL187:
 1565              		.loc 1 189 0
 1566 001a 0E4B     		ldr	r3, .L170+4
 1567              		.loc 1 187 0
 1568 001c A4F85450 		strh	r5, [r4, #84]	@ movhi
 1569              		.loc 1 188 0
 1570 0020 A565     		str	r5, [r4, #88]
 1571              		.loc 1 189 0
 1572 0022 2366     		str	r3, [r4, #96]
 1573              	.L169:
 1574              		.loc 1 193 0
 1575 0024 0C48     		ldr	r0, .L170+8
 1576 0026 FFF7FEFF 		bl	chMtxLock
 1577              	.LVL188:
 1578              	.LBE58:
 1579              	.LBE60:
 1580              		.loc 1 697 0
 1581 002a 0025     		movs	r5, #0
 1582              		.loc 1 701 0
 1583 002c 08AB     		add	r3, sp, #32
 1584              		.loc 1 697 0
 1585 002e 6560     		str	r5, [r4, #4]
 1586              		.loc 1 702 0
 1587 0030 0799     		ldr	r1, [sp, #28]
 1588              		.loc 1 698 0
 1589 0032 4FF0FF35 		mov	r5, #-1
ARM GAS  C:\Users\KE'OND~1\AppData\Local\Temp\ccZRf9ve.s 			page 29


 1590              		.loc 1 702 0
 1591 0036 1A46     		mov	r2, r3
 1592 0038 0548     		ldr	r0, .L170
 1593              		.loc 1 698 0
 1594 003a E560     		str	r5, [r4, #12]
 1595              		.loc 1 699 0
 1596 003c 2666     		str	r6, [r4, #96]
 1597              		.loc 1 701 0
 1598 003e 0193     		str	r3, [sp, #4]
 1599              		.loc 1 702 0
 1600 0040 FFF7FEFF 		bl	vex_print
 1601              	.LVL189:
 1602              		.loc 1 703 0
 1603 0044 03B0     		add	sp, sp, #12
 1604 0046 BDE87040 		pop	{r4, r5, r6, lr}
 1605 004a 03B0     		add	sp, sp, #12
 1606 004c 7047     		bx	lr
 1607              	.L171:
 1608 004e 00BF     		.align	2
 1609              	.L170:
 1610 0050 00000000 		.word	.LANCHOR1
 1611 0054 00000000 		.word	SD1
 1612 0058 44000000 		.word	.LANCHOR1+68
 1613              		.cfi_endproc
 1614              	.LFE72:
 1615              		.size	vex_chprintf, .-vex_chprintf
 1616 005c AFF30080 		.section	.text.vex_vprintf,"ax",%progbits
 1617              		.align	2
 1618              		.p2align 4,,15
 1619              		.global	vex_vprintf
 1620              		.thumb
 1621              		.thumb_func
 1622              		.type	vex_vprintf, %function
 1623              	vex_vprintf:
 1624              	.LFB73:
 1625              		.loc 1 716 0
 1626              		.cfi_startproc
 1627              		@ args = 0, pretend = 0, frame = 0
 1628              		@ frame_needed = 0, uses_anonymous_args = 0
 1629              	.LVL190:
 1630 0000 2DE9F041 		push	{r4, r5, r6, r7, r8, lr}
 1631              	.LCFI14:
 1632              		.cfi_def_cfa_offset 24
 1633              		.cfi_offset 4, -24
 1634              		.cfi_offset 5, -20
 1635              		.cfi_offset 6, -16
 1636              		.cfi_offset 7, -12
 1637              		.cfi_offset 8, -8
 1638              		.cfi_offset 14, -4
 1639              	.LBB63:
 1640              	.LBB64:
 1641              		.loc 1 177 0
 1642 0004 104C     		ldr	r4, .L176
 1643              	.LBE64:
 1644              	.LBE63:
 1645              		.loc 1 716 0
 1646 0006 8046     		mov	r8, r0
ARM GAS  C:\Users\KE'OND~1\AppData\Local\Temp\ccZRf9ve.s 			page 30


 1647              	.LBB68:
 1648              	.LBB65:
 1649              		.loc 1 177 0
 1650 0008 2568     		ldr	r5, [r4, #0]
 1651              	.LBE65:
 1652              	.LBE68:
 1653              		.loc 1 716 0
 1654 000a 0F46     		mov	r7, r1
 1655              	.LBB69:
 1656              	.LBB66:
 1657              		.loc 1 177 0
 1658 000c 85B1     		cbz	r5, .L175
 1659 000e 0F4E     		ldr	r6, .L176+4
 1660              	.LVL191:
 1661              	.L173:
 1662              		.loc 1 193 0
 1663 0010 0F48     		ldr	r0, .L176+8
 1664 0012 FFF7FEFF 		bl	chMtxLock
 1665              	.LVL192:
 1666              	.LBE66:
 1667              	.LBE69:
 1668              		.loc 1 719 0
 1669 0016 0023     		movs	r3, #0
 1670              		.loc 1 723 0
 1671 0018 0B48     		ldr	r0, .L176
 1672              		.loc 1 719 0
 1673 001a 6360     		str	r3, [r4, #4]
 1674              		.loc 1 723 0
 1675 001c 4146     		mov	r1, r8
 1676              		.loc 1 720 0
 1677 001e 4FF0FF33 		mov	r3, #-1
 1678              	.LVL193:
 1679              		.loc 1 723 0
 1680 0022 3A46     		mov	r2, r7
 1681              		.loc 1 720 0
 1682 0024 E360     		str	r3, [r4, #12]
 1683              		.loc 1 721 0
 1684 0026 2666     		str	r6, [r4, #96]
 1685              		.loc 1 724 0
 1686 0028 BDE8F041 		pop	{r4, r5, r6, r7, r8, lr}
 1687              		.loc 1 723 0
 1688 002c FFF7FEBF 		b	vex_print
 1689              	.LVL194:
 1690              	.L175:
 1691              	.LBB70:
 1692              	.LBB67:
 1693              		.loc 1 179 0
 1694 0030 2046     		mov	r0, r4
 1695              	.LVL195:
 1696 0032 0123     		movs	r3, #1
 1697              		.loc 1 189 0
 1698 0034 054E     		ldr	r6, .L176+4
 1699              		.loc 1 179 0
 1700 0036 40F8443B 		str	r3, [r0], #68
 1701              		.loc 1 182 0
 1702 003a FFF7FEFF 		bl	chMtxInit
 1703              	.LVL196:
ARM GAS  C:\Users\KE'OND~1\AppData\Local\Temp\ccZRf9ve.s 			page 31


 1704              		.loc 1 187 0
 1705 003e A4F85450 		strh	r5, [r4, #84]	@ movhi
 1706              		.loc 1 188 0
 1707 0042 A565     		str	r5, [r4, #88]
 1708              		.loc 1 189 0
 1709 0044 2666     		str	r6, [r4, #96]
 1710 0046 E3E7     		b	.L173
 1711              	.L177:
 1712              		.align	2
 1713              	.L176:
 1714 0048 00000000 		.word	.LANCHOR1
 1715 004c 00000000 		.word	SD1
 1716 0050 44000000 		.word	.LANCHOR1+68
 1717              	.LBE67:
 1718              	.LBE70:
 1719              		.cfi_endproc
 1720              	.LFE73:
 1721              		.size	vex_vprintf, .-vex_vprintf
 1722 0054 AFF30080 		.section	.text.vex_vchprintf,"ax",%progbits
 1722      AFF30080 
 1722      AFF30080 
 1723              		.align	2
 1724              		.p2align 4,,15
 1725              		.global	vex_vchprintf
 1726              		.thumb
 1727              		.thumb_func
 1728              		.type	vex_vchprintf, %function
 1729              	vex_vchprintf:
 1730              	.LFB74:
 1731              		.loc 1 739 0
 1732              		.cfi_startproc
 1733              		@ args = 0, pretend = 0, frame = 0
 1734              		@ frame_needed = 0, uses_anonymous_args = 0
 1735              	.LVL197:
 1736 0000 2DE9F041 		push	{r4, r5, r6, r7, r8, lr}
 1737              	.LCFI15:
 1738              		.cfi_def_cfa_offset 24
 1739              		.cfi_offset 4, -24
 1740              		.cfi_offset 5, -20
 1741              		.cfi_offset 6, -16
 1742              		.cfi_offset 7, -12
 1743              		.cfi_offset 8, -8
 1744              		.cfi_offset 14, -4
 1745              	.LBB73:
 1746              	.LBB74:
 1747              		.loc 1 177 0
 1748 0004 104C     		ldr	r4, .L180
 1749              	.LBE74:
 1750              	.LBE73:
 1751              		.loc 1 739 0
 1752 0006 0646     		mov	r6, r0
 1753              	.LBB77:
 1754              	.LBB75:
 1755              		.loc 1 177 0
 1756 0008 2568     		ldr	r5, [r4, #0]
 1757              	.LBE75:
 1758              	.LBE77:
ARM GAS  C:\Users\KE'OND~1\AppData\Local\Temp\ccZRf9ve.s 			page 32


 1759              		.loc 1 739 0
 1760 000a 8846     		mov	r8, r1
 1761 000c 1746     		mov	r7, r2
 1762              	.LBB78:
 1763              	.LBB76:
 1764              		.loc 1 177 0
 1765 000e 55B9     		cbnz	r5, .L179
 1766              		.loc 1 179 0
 1767 0010 0123     		movs	r3, #1
 1768 0012 2046     		mov	r0, r4
 1769              	.LVL198:
 1770 0014 40F8443B 		str	r3, [r0], #68
 1771              		.loc 1 182 0
 1772 0018 FFF7FEFF 		bl	chMtxInit
 1773              	.LVL199:
 1774              		.loc 1 189 0
 1775 001c 0B4B     		ldr	r3, .L180+4
 1776              		.loc 1 187 0
 1777 001e A4F85450 		strh	r5, [r4, #84]	@ movhi
 1778              		.loc 1 188 0
 1779 0022 A565     		str	r5, [r4, #88]
 1780              		.loc 1 189 0
 1781 0024 2366     		str	r3, [r4, #96]
 1782              	.LVL200:
 1783              	.L179:
 1784              		.loc 1 193 0
 1785 0026 0A48     		ldr	r0, .L180+8
 1786 0028 FFF7FEFF 		bl	chMtxLock
 1787              	.LVL201:
 1788              	.LBE76:
 1789              	.LBE78:
 1790              		.loc 1 742 0
 1791 002c 0023     		movs	r3, #0
 1792              		.loc 1 746 0
 1793 002e 0648     		ldr	r0, .L180
 1794              		.loc 1 742 0
 1795 0030 6360     		str	r3, [r4, #4]
 1796              		.loc 1 746 0
 1797 0032 4146     		mov	r1, r8
 1798              		.loc 1 743 0
 1799 0034 4FF0FF33 		mov	r3, #-1
 1800              	.LVL202:
 1801              		.loc 1 746 0
 1802 0038 3A46     		mov	r2, r7
 1803              		.loc 1 743 0
 1804 003a E360     		str	r3, [r4, #12]
 1805              		.loc 1 744 0
 1806 003c 2666     		str	r6, [r4, #96]
 1807              		.loc 1 747 0
 1808 003e BDE8F041 		pop	{r4, r5, r6, r7, r8, lr}
 1809              		.loc 1 746 0
 1810 0042 FFF7FEBF 		b	vex_print
 1811              	.LVL203:
 1812              	.L181:
 1813 0046 00BF     		.align	2
 1814              	.L180:
 1815 0048 00000000 		.word	.LANCHOR1
ARM GAS  C:\Users\KE'OND~1\AppData\Local\Temp\ccZRf9ve.s 			page 33


 1816 004c 00000000 		.word	SD1
 1817 0050 44000000 		.word	.LANCHOR1+68
 1818              		.cfi_endproc
 1819              	.LFE74:
 1820              		.size	vex_vchprintf, .-vex_vchprintf
 1821 0054 AFF30080 		.section	.text.vex_sprintf,"ax",%progbits
 1821      AFF30080 
 1821      AFF30080 
 1822              		.align	2
 1823              		.p2align 4,,15
 1824              		.global	vex_sprintf
 1825              		.thumb
 1826              		.thumb_func
 1827              		.type	vex_sprintf, %function
 1828              	vex_sprintf:
 1829              	.LFB75:
 1830              		.loc 1 760 0
 1831              		.cfi_startproc
 1832              		@ args = 4, pretend = 12, frame = 16
 1833              		@ frame_needed = 0, uses_anonymous_args = 1
 1834              	.LVL204:
 1835 0000 0EB4     		push	{r1, r2, r3}
 1836              	.LCFI16:
 1837              		.cfi_def_cfa_offset 12
 1838              		.cfi_offset 1, -12
 1839              		.cfi_offset 2, -8
 1840              		.cfi_offset 3, -4
 1841 0002 30B5     		push	{r4, r5, lr}
 1842              	.LCFI17:
 1843              		.cfi_def_cfa_offset 24
 1844              		.cfi_offset 4, -24
 1845              		.cfi_offset 5, -20
 1846              		.cfi_offset 14, -16
 1847              	.LBB81:
 1848              	.LBB82:
 1849              		.loc 1 177 0
 1850 0004 114C     		ldr	r4, .L184
 1851              	.LBE82:
 1852              	.LBE81:
 1853              		.loc 1 760 0
 1854 0006 84B0     		sub	sp, sp, #16
 1855              	.LCFI18:
 1856              		.cfi_def_cfa_offset 40
 1857              	.LBB85:
 1858              	.LBB83:
 1859              		.loc 1 177 0
 1860 0008 2568     		ldr	r5, [r4, #0]
 1861              	.LBE83:
 1862              	.LBE85:
 1863              		.loc 1 760 0
 1864 000a 0190     		str	r0, [sp, #4]
 1865              	.LBB86:
 1866              	.LBB84:
 1867              		.loc 1 177 0
 1868 000c 55B9     		cbnz	r5, .L183
 1869              		.loc 1 179 0
 1870 000e 0123     		movs	r3, #1
ARM GAS  C:\Users\KE'OND~1\AppData\Local\Temp\ccZRf9ve.s 			page 34


 1871 0010 2046     		mov	r0, r4
 1872 0012 40F8443B 		str	r3, [r0], #68
 1873              		.loc 1 182 0
 1874 0016 FFF7FEFF 		bl	chMtxInit
 1875              	.LVL205:
 1876              		.loc 1 189 0
 1877 001a 0D4B     		ldr	r3, .L184+4
 1878              		.loc 1 187 0
 1879 001c A4F85450 		strh	r5, [r4, #84]	@ movhi
 1880              		.loc 1 188 0
 1881 0020 A565     		str	r5, [r4, #88]
 1882              		.loc 1 189 0
 1883 0022 2366     		str	r3, [r4, #96]
 1884              	.LVL206:
 1885              	.L183:
 1886              		.loc 1 193 0
 1887 0024 0B48     		ldr	r0, .L184+8
 1888 0026 FFF7FEFF 		bl	chMtxLock
 1889              	.LVL207:
 1890              	.LBE84:
 1891              	.LBE86:
 1892              		.loc 1 765 0
 1893 002a 01AD     		add	r5, sp, #4
 1894              		.loc 1 768 0
 1895 002c 08AB     		add	r3, sp, #32
 1896              		.loc 1 765 0
 1897 002e 6560     		str	r5, [r4, #4]
 1898              		.loc 1 769 0
 1899 0030 0799     		ldr	r1, [sp, #28]
 1900              		.loc 1 766 0
 1901 0032 4FF0FF35 		mov	r5, #-1
 1902              		.loc 1 769 0
 1903 0036 1A46     		mov	r2, r3
 1904 0038 0448     		ldr	r0, .L184
 1905              		.loc 1 766 0
 1906 003a E560     		str	r5, [r4, #12]
 1907              		.loc 1 768 0
 1908 003c 0393     		str	r3, [sp, #12]
 1909              		.loc 1 769 0
 1910 003e FFF7FEFF 		bl	vex_print
 1911              	.LVL208:
 1912              		.loc 1 770 0
 1913 0042 04B0     		add	sp, sp, #16
 1914 0044 BDE83040 		pop	{r4, r5, lr}
 1915 0048 03B0     		add	sp, sp, #12
 1916 004a 7047     		bx	lr
 1917              	.L185:
 1918              		.align	2
 1919              	.L184:
 1920 004c 00000000 		.word	.LANCHOR2
 1921 0050 00000000 		.word	SD1
 1922 0054 44000000 		.word	.LANCHOR2+68
 1923              		.cfi_endproc
 1924              	.LFE75:
 1925              		.size	vex_sprintf, .-vex_sprintf
 1926 0058 AFF30080 		.section	.text.vex_snprintf,"ax",%progbits
 1926      AFF30080 
ARM GAS  C:\Users\KE'OND~1\AppData\Local\Temp\ccZRf9ve.s 			page 35


 1927              		.align	2
 1928              		.p2align 4,,15
 1929              		.global	vex_snprintf
 1930              		.thumb
 1931              		.thumb_func
 1932              		.type	vex_snprintf, %function
 1933              	vex_snprintf:
 1934              	.LFB76:
 1935              		.loc 1 784 0
 1936              		.cfi_startproc
 1937              		@ args = 4, pretend = 8, frame = 16
 1938              		@ frame_needed = 0, uses_anonymous_args = 1
 1939              	.LVL209:
 1940 0000 0CB4     		push	{r2, r3}
 1941              	.LCFI19:
 1942              		.cfi_def_cfa_offset 8
 1943              		.cfi_offset 2, -8
 1944              		.cfi_offset 3, -4
 1945 0002 70B5     		push	{r4, r5, r6, lr}
 1946              	.LCFI20:
 1947              		.cfi_def_cfa_offset 24
 1948              		.cfi_offset 4, -24
 1949              		.cfi_offset 5, -20
 1950              		.cfi_offset 6, -16
 1951              		.cfi_offset 14, -12
 1952              	.LBB89:
 1953              	.LBB90:
 1954              		.loc 1 177 0
 1955 0004 124C     		ldr	r4, .L188
 1956              	.LBE90:
 1957              	.LBE89:
 1958              		.loc 1 784 0
 1959 0006 84B0     		sub	sp, sp, #16
 1960              	.LCFI21:
 1961              		.cfi_def_cfa_offset 40
 1962              	.LBB93:
 1963              	.LBB91:
 1964              		.loc 1 177 0
 1965 0008 2668     		ldr	r6, [r4, #0]
 1966              	.LBE91:
 1967              	.LBE93:
 1968              		.loc 1 784 0
 1969 000a 0190     		str	r0, [sp, #4]
 1970 000c 0D46     		mov	r5, r1
 1971              	.LBB94:
 1972              	.LBB92:
 1973              		.loc 1 177 0
 1974 000e 56B9     		cbnz	r6, .L187
 1975              		.loc 1 179 0
 1976 0010 0123     		movs	r3, #1
 1977 0012 2046     		mov	r0, r4
 1978 0014 40F8443B 		str	r3, [r0], #68
 1979              		.loc 1 182 0
 1980 0018 FFF7FEFF 		bl	chMtxInit
 1981              	.LVL210:
 1982              		.loc 1 189 0
 1983 001c 0D4B     		ldr	r3, .L188+4
ARM GAS  C:\Users\KE'OND~1\AppData\Local\Temp\ccZRf9ve.s 			page 36


 1984              		.loc 1 187 0
 1985 001e A4F85460 		strh	r6, [r4, #84]	@ movhi
 1986              		.loc 1 188 0
 1987 0022 A665     		str	r6, [r4, #88]
 1988              		.loc 1 189 0
 1989 0024 2366     		str	r3, [r4, #96]
 1990              	.LVL211:
 1991              	.L187:
 1992              		.loc 1 193 0
 1993 0026 0C48     		ldr	r0, .L188+8
 1994 0028 FFF7FEFF 		bl	chMtxLock
 1995              	.LVL212:
 1996              	.LBE92:
 1997              	.LBE94:
 1998              		.loc 1 794 0
 1999 002c 09AB     		add	r3, sp, #36
 2000              		.loc 1 796 0
 2001 002e 0899     		ldr	r1, [sp, #32]
 2002 0030 1A46     		mov	r2, r3
 2003              		.loc 1 791 0
 2004 0032 01AE     		add	r6, sp, #4
 2005              		.loc 1 796 0
 2006 0034 0648     		ldr	r0, .L188
 2007              		.loc 1 791 0
 2008 0036 6660     		str	r6, [r4, #4]
 2009              		.loc 1 792 0
 2010 0038 E560     		str	r5, [r4, #12]
 2011              		.loc 1 794 0
 2012 003a 0393     		str	r3, [sp, #12]
 2013              		.loc 1 796 0
 2014 003c FFF7FEFF 		bl	vex_print
 2015              	.LVL213:
 2016              		.loc 1 802 0
 2017 0040 A842     		cmp	r0, r5
 2018 0042 A8BF     		it	ge
 2019 0044 2846     		movge	r0, r5
 2020              	.LVL214:
 2021 0046 04B0     		add	sp, sp, #16
 2022 0048 BDE87040 		pop	{r4, r5, r6, lr}
 2023 004c 02B0     		add	sp, sp, #8
 2024 004e 7047     		bx	lr
 2025              	.L189:
 2026              		.align	2
 2027              	.L188:
 2028 0050 00000000 		.word	.LANCHOR2
 2029 0054 00000000 		.word	SD1
 2030 0058 44000000 		.word	.LANCHOR2+68
 2031              		.cfi_endproc
 2032              	.LFE76:
 2033              		.size	vex_snprintf, .-vex_snprintf
 2034 005c AFF30080 		.section	.text.vex_vsprintf,"ax",%progbits
 2035              		.align	2
 2036              		.p2align 4,,15
 2037              		.global	vex_vsprintf
 2038              		.thumb
 2039              		.thumb_func
 2040              		.type	vex_vsprintf, %function
ARM GAS  C:\Users\KE'OND~1\AppData\Local\Temp\ccZRf9ve.s 			page 37


 2041              	vex_vsprintf:
 2042              	.LFB77:
 2043              		.loc 1 816 0
 2044              		.cfi_startproc
 2045              		@ args = 0, pretend = 0, frame = 8
 2046              		@ frame_needed = 0, uses_anonymous_args = 0
 2047              	.LVL215:
 2048 0000 F0B5     		push	{r4, r5, r6, r7, lr}
 2049              	.LCFI22:
 2050              		.cfi_def_cfa_offset 20
 2051              		.cfi_offset 4, -20
 2052              		.cfi_offset 5, -16
 2053              		.cfi_offset 6, -12
 2054              		.cfi_offset 7, -8
 2055              		.cfi_offset 14, -4
 2056              	.LBB97:
 2057              	.LBB98:
 2058              		.loc 1 177 0
 2059 0002 104C     		ldr	r4, .L192
 2060              	.LBE98:
 2061              	.LBE97:
 2062              		.loc 1 816 0
 2063 0004 83B0     		sub	sp, sp, #12
 2064              	.LCFI23:
 2065              		.cfi_def_cfa_offset 32
 2066              	.LBB101:
 2067              	.LBB99:
 2068              		.loc 1 177 0
 2069 0006 2568     		ldr	r5, [r4, #0]
 2070              	.LBE99:
 2071              	.LBE101:
 2072              		.loc 1 816 0
 2073 0008 0190     		str	r0, [sp, #4]
 2074 000a 0F46     		mov	r7, r1
 2075 000c 1646     		mov	r6, r2
 2076              	.LBB102:
 2077              	.LBB100:
 2078              		.loc 1 177 0
 2079 000e 55B9     		cbnz	r5, .L191
 2080              		.loc 1 179 0
 2081 0010 0123     		movs	r3, #1
 2082 0012 2046     		mov	r0, r4
 2083 0014 40F8443B 		str	r3, [r0], #68
 2084              		.loc 1 182 0
 2085 0018 FFF7FEFF 		bl	chMtxInit
 2086              	.LVL216:
 2087              		.loc 1 189 0
 2088 001c 0A4B     		ldr	r3, .L192+4
 2089              		.loc 1 187 0
 2090 001e A4F85450 		strh	r5, [r4, #84]	@ movhi
 2091              		.loc 1 188 0
 2092 0022 A565     		str	r5, [r4, #88]
 2093              		.loc 1 189 0
 2094 0024 2366     		str	r3, [r4, #96]
 2095              	.LVL217:
 2096              	.L191:
 2097              		.loc 1 193 0
ARM GAS  C:\Users\KE'OND~1\AppData\Local\Temp\ccZRf9ve.s 			page 38


 2098 0026 0948     		ldr	r0, .L192+8
 2099 0028 FFF7FEFF 		bl	chMtxLock
 2100              	.LVL218:
 2101              	.LBE100:
 2102              	.LBE102:
 2103              		.loc 1 819 0
 2104 002c 01AB     		add	r3, sp, #4
 2105 002e 6360     		str	r3, [r4, #4]
 2106              		.loc 1 822 0
 2107 0030 3946     		mov	r1, r7
 2108              		.loc 1 820 0
 2109 0032 4FF0FF33 		mov	r3, #-1
 2110              	.LVL219:
 2111              		.loc 1 822 0
 2112 0036 3246     		mov	r2, r6
 2113 0038 0248     		ldr	r0, .L192
 2114              		.loc 1 820 0
 2115 003a E360     		str	r3, [r4, #12]
 2116              		.loc 1 822 0
 2117 003c FFF7FEFF 		bl	vex_print
 2118              	.LVL220:
 2119              		.loc 1 823 0
 2120 0040 03B0     		add	sp, sp, #12
 2121 0042 F0BD     		pop	{r4, r5, r6, r7, pc}
 2122              	.L193:
 2123              		.align	2
 2124              	.L192:
 2125 0044 00000000 		.word	.LANCHOR2
 2126 0048 00000000 		.word	SD1
 2127 004c 44000000 		.word	.LANCHOR2+68
 2128              		.cfi_endproc
 2129              	.LFE77:
 2130              		.size	vex_vsprintf, .-vex_vsprintf
 2131              		.section	.text.vex_vsnprintf,"ax",%progbits
 2132              		.align	2
 2133              		.p2align 4,,15
 2134              		.global	vex_vsnprintf
 2135              		.thumb
 2136              		.thumb_func
 2137              		.type	vex_vsnprintf, %function
 2138              	vex_vsnprintf:
 2139              	.LFB78:
 2140              		.loc 1 838 0
 2141              		.cfi_startproc
 2142              		@ args = 0, pretend = 0, frame = 8
 2143              		@ frame_needed = 0, uses_anonymous_args = 0
 2144              	.LVL221:
 2145 0000 2DE9F041 		push	{r4, r5, r6, r7, r8, lr}
 2146              	.LCFI24:
 2147              		.cfi_def_cfa_offset 24
 2148              		.cfi_offset 4, -24
 2149              		.cfi_offset 5, -20
 2150              		.cfi_offset 6, -16
 2151              		.cfi_offset 7, -12
 2152              		.cfi_offset 8, -8
 2153              		.cfi_offset 14, -4
 2154              	.LBB105:
ARM GAS  C:\Users\KE'OND~1\AppData\Local\Temp\ccZRf9ve.s 			page 39


 2155              	.LBB106:
 2156              		.loc 1 177 0
 2157 0004 114C     		ldr	r4, .L196
 2158              	.LBE106:
 2159              	.LBE105:
 2160              		.loc 1 838 0
 2161 0006 82B0     		sub	sp, sp, #8
 2162              	.LCFI25:
 2163              		.cfi_def_cfa_offset 32
 2164              	.LBB109:
 2165              	.LBB107:
 2166              		.loc 1 177 0
 2167 0008 2668     		ldr	r6, [r4, #0]
 2168              	.LBE107:
 2169              	.LBE109:
 2170              		.loc 1 838 0
 2171 000a 0190     		str	r0, [sp, #4]
 2172 000c 0D46     		mov	r5, r1
 2173 000e 9046     		mov	r8, r2
 2174 0010 1F46     		mov	r7, r3
 2175              	.LBB110:
 2176              	.LBB108:
 2177              		.loc 1 177 0
 2178 0012 56B9     		cbnz	r6, .L195
 2179              		.loc 1 179 0
 2180 0014 0123     		movs	r3, #1
 2181              	.LVL222:
 2182 0016 2046     		mov	r0, r4
 2183 0018 40F8443B 		str	r3, [r0], #68
 2184              		.loc 1 182 0
 2185 001c FFF7FEFF 		bl	chMtxInit
 2186              	.LVL223:
 2187              		.loc 1 189 0
 2188 0020 0B4B     		ldr	r3, .L196+4
 2189              		.loc 1 187 0
 2190 0022 A4F85460 		strh	r6, [r4, #84]	@ movhi
 2191              		.loc 1 188 0
 2192 0026 A665     		str	r6, [r4, #88]
 2193              		.loc 1 189 0
 2194 0028 2366     		str	r3, [r4, #96]
 2195              	.LVL224:
 2196              	.L195:
 2197              		.loc 1 193 0
 2198 002a 0A48     		ldr	r0, .L196+8
 2199 002c FFF7FEFF 		bl	chMtxLock
 2200              	.LVL225:
 2201              	.LBE108:
 2202              	.LBE110:
 2203              		.loc 1 843 0
 2204 0030 01AB     		add	r3, sp, #4
 2205              		.loc 1 846 0
 2206 0032 4146     		mov	r1, r8
 2207              	.LVL226:
 2208 0034 3A46     		mov	r2, r7
 2209 0036 0548     		ldr	r0, .L196
 2210              		.loc 1 843 0
 2211 0038 6360     		str	r3, [r4, #4]
ARM GAS  C:\Users\KE'OND~1\AppData\Local\Temp\ccZRf9ve.s 			page 40


 2212              		.loc 1 844 0
 2213 003a E560     		str	r5, [r4, #12]
 2214              		.loc 1 846 0
 2215 003c FFF7FEFF 		bl	vex_print
 2216              	.LVL227:
 2217              		.loc 1 852 0
 2218 0040 A842     		cmp	r0, r5
 2219 0042 A8BF     		it	ge
 2220 0044 2846     		movge	r0, r5
 2221              	.LVL228:
 2222 0046 02B0     		add	sp, sp, #8
 2223 0048 BDE8F081 		pop	{r4, r5, r6, r7, r8, pc}
 2224              	.L197:
 2225              		.align	2
 2226              	.L196:
 2227 004c 00000000 		.word	.LANCHOR2
 2228 0050 00000000 		.word	SD1
 2229 0054 44000000 		.word	.LANCHOR2+68
 2230              		.cfi_endproc
 2231              	.LFE78:
 2232              		.size	vex_vsnprintf, .-vex_vsnprintf
 2233 0058 AFF30080 		.section	.bss.pdefs1,"aw",%nobits
 2233      AFF30080 
 2234              		.align	2
 2235              		.set	.LANCHOR1,. + 0
 2236              		.type	pdefs1, %object
 2237              		.size	pdefs1, 100
 2238              	pdefs1:
 2239 0000 00000000 		.space	100
 2239      00000000 
 2239      00000000 
 2239      00000000 
 2239      00000000 
 2240              		.section	.bss.pdefs2,"aw",%nobits
 2241              		.align	2
 2242              		.set	.LANCHOR2,. + 0
 2243              		.type	pdefs2, %object
 2244              		.size	pdefs2, 100
 2245              	pdefs2:
 2246 0000 00000000 		.space	100
 2246      00000000 
 2246      00000000 
 2246      00000000 
 2246      00000000 
 2247              		.section	.rodata.str1.4,"aMS",%progbits,1
 2248              		.align	2
 2249              	.LC0:
 2250 0000 3000     		.ascii	"0\000"
 2251 0002 0000     		.space	2
 2252              	.LC1:
 2253 0004 286E756C 		.ascii	"(null)\000"
 2253      6C2900
 2254 000b 00       		.section	.rodata.round_nums,"a",%progbits
 2255              		.align	3
 2256              		.set	.LANCHOR0,. + 0
 2257              		.type	round_nums, %object
 2258              		.size	round_nums, 64
ARM GAS  C:\Users\KE'OND~1\AppData\Local\Temp\ccZRf9ve.s 			page 41


 2259              	round_nums:
 2260 0000 00000000 		.word	0
 2261 0004 0000E03F 		.word	1071644672
 2262 0008 9A999999 		.word	-1717986918
 2263 000c 9999A93F 		.word	1068079513
 2264 0010 7B14AE47 		.word	1202590843
 2265 0014 E17A743F 		.word	1064598241
 2266 0018 FCA9F1D2 		.word	-755914244
 2267 001c 4D62403F 		.word	1061184077
 2268 0020 2D431CEB 		.word	-350469331
 2269 0024 E2360A3F 		.word	1057634018
 2270 0028 F168E388 		.word	-1998362383
 2271 002c B5F8D43E 		.word	1054144693
 2272 0030 8DEDB5A0 		.word	-1598689907
 2273 0034 F7C6A03E 		.word	1050724087
 2274 0038 48AFBC9A 		.word	-1698910392
 2275 003c F2D76A3E 		.word	1047189490
 2276              		.text
 2277              	.Letext0:
 2278              		.file 2 "c:\\yagarto-20121222\\bin\\../lib/gcc/arm-none-eabi/4.7.2/include/stddef.h"
 2279              		.file 3 "c:\\yagarto-20121222\\bin\\../lib/gcc/arm-none-eabi/4.7.2/include/stdarg.h"
 2280              		.file 4 "c:/yagarto-20121222/lib/gcc/../../arm-none-eabi/sys-include/stdint.h"
 2281              		.file 5 "../ChibiOS_2.6.2/os/ports/GCC/ARMCMx/chtypes.h"
 2282              		.file 6 "../ChibiOS_2.6.2/os/kernel/include/chlists.h"
 2283              		.file 7 "<built-in>"
 2284              		.file 8 "../ChibiOS_2.6.2/os/kernel/include/chthreads.h"
 2285              		.file 9 "../ChibiOS_2.6.2/os/ports/GCC/ARMCMx/chcore_v7m.h"
 2286              		.file 10 "../ChibiOS_2.6.2/os/kernel/include/chvt.h"
 2287              		.file 11 "../ChibiOS_2.6.2/os/kernel/include/chmtx.h"
 2288              		.file 12 "../ChibiOS_2.6.2/os/kernel/include/chevents.h"
 2289              		.file 13 "../ChibiOS_2.6.2/os/kernel/include/chqueues.h"
 2290              		.file 14 "../ChibiOS_2.6.2/os/kernel/include/chstreams.h"
 2291              		.file 15 "../ChibiOS_2.6.2/os/hal/platforms/STM32F1xx/stm32f10x.h"
 2292              		.file 16 "../ChibiOS_2.6.2/os/hal/include/serial.h"
 2293              		.file 17 "../convex/cortex/fw/vexcompat.h"
 2294              		.file 18 "../convex/cortex/fw/vexdigital.h"
 2295              		.file 19 "../convex/cortex/fw/vexime.h"
 2296              		.file 20 "../ChibiOS_2.6.2/os/ports/common/ARMCMx/CMSIS/include/core_cm3.h"
 2297              		.file 21 "../ChibiOS_2.6.2/os/hal/platforms/STM32/USARTv1/serial_lld.h"