ARM GAS  C:\Users\KE'OND~1\AppData\Local\Temp\cc2z7Sdr.s 			page 1


   1              		.syntax unified
   2              		.cpu cortex-m3
   3              		.fpu softvfp
   4              		.eabi_attribute 20, 1
   5              		.eabi_attribute 21, 1
   6              		.eabi_attribute 23, 3
   7              		.eabi_attribute 24, 1
   8              		.eabi_attribute 25, 1
   9              		.eabi_attribute 26, 1
  10              		.eabi_attribute 30, 2
  11              		.eabi_attribute 34, 1
  12              		.eabi_attribute 18, 4
  13              		.thumb
  14              		.file	"vexuser.c"
  15              		.text
  16              	.Ltext0:
  17              		.cfi_sections	.debug_frame
  18              		.section	.text.vexUserSetup,"ax",%progbits
  19              		.align	2
  20              		.p2align 4,,15
  21              		.weak	vexUserSetup
  22              		.thumb
  23              		.thumb_func
  24              		.type	vexUserSetup, %function
  25              	vexUserSetup:
  26              	.LFB63:
  27              		.file 1 "vexuser.c"
  28              		.loc 1 103 0
  29              		.cfi_startproc
  30              		@ args = 0, pretend = 0, frame = 0
  31              		@ frame_needed = 0, uses_anonymous_args = 0
  32              		.loc 1 104 0
  33 0000 40F20000 		movw	r0, #:lower16:.LANCHOR0
  34 0004 0C21     		movs	r1, #12
  35              		.loc 1 103 0
  36 0006 08B5     		push	{r3, lr}
  37              	.LCFI0:
  38              		.cfi_def_cfa_offset 8
  39              		.cfi_offset 3, -8
  40              		.cfi_offset 14, -4
  41              		.loc 1 104 0
  42 0008 C0F20000 		movt	r0, #:upper16:.LANCHOR0
  43 000c FFF7FEFF 		bl	vexDigitalConfigure
  44              	.LVL0:
  45              		.loc 1 105 0
  46 0010 40F20000 		movw	r0, #:lower16:.LANCHOR1
  47 0014 C0F20000 		movt	r0, #:upper16:.LANCHOR1
  48 0018 0A21     		movs	r1, #10
  49              		.loc 1 106 0
  50 001a BDE80840 		pop	{r3, lr}
  51              		.loc 1 105 0
  52 001e FFF7FEBF 		b	vexMotorConfigure
  53              	.LVL1:
  54              		.cfi_endproc
  55              	.LFE63:
  56              		.size	vexUserSetup, .-vexUserSetup
  57 0022 00BFAFF3 		.section	.text.vexUserInit,"ax",%progbits
ARM GAS  C:\Users\KE'OND~1\AppData\Local\Temp\cc2z7Sdr.s 			page 2


  57      0080AFF3 
  57      0080AFF3 
  57      0080
  58              		.align	2
  59              		.p2align 4,,15
  60              		.weak	vexUserInit
  61              		.thumb
  62              		.thumb_func
  63              		.type	vexUserInit, %function
  64              	vexUserInit:
  65              	.LFB64:
  66              		.loc 1 118 0
  67              		.cfi_startproc
  68              		@ args = 0, pretend = 0, frame = 0
  69              		@ frame_needed = 0, uses_anonymous_args = 0
  70              		@ link register save eliminated.
  71 0000 7047     		bx	lr
  72              		.cfi_endproc
  73              	.LFE64:
  74              		.size	vexUserInit, .-vexUserInit
  75 0002 00BFAFF3 		.section	.text.vexAutonomous,"ax",%progbits
  75      0080AFF3 
  75      0080AFF3 
  75      0080
  76              		.align	2
  77              		.p2align 4,,15
  78              		.global	vexAutonomous
  79              		.thumb
  80              		.thumb_func
  81              		.type	vexAutonomous, %function
  82              	vexAutonomous:
  83              	.LFB65:
  84              		.loc 1 130 0
  85              		.cfi_startproc
  86              		@ Volatile: function does not return.
  87              		@ args = 0, pretend = 0, frame = 0
  88              		@ frame_needed = 0, uses_anonymous_args = 0
  89              	.LVL2:
  90              		.loc 1 130 0
  91 0000 08B5     		push	{r3, lr}
  92              	.LCFI1:
  93              		.cfi_def_cfa_offset 8
  94              		.cfi_offset 3, -8
  95              		.cfi_offset 14, -4
  96              		.loc 1 134 0
  97 0002 0348     		ldr	r0, .L6
  98              	.LVL3:
  99 0004 FFF7FEFF 		bl	vexTaskRegister
 100              	.LVL4:
 101              	.L4:
 102              		.loc 1 139 0 discriminator 1
 103 0008 1920     		movs	r0, #25
 104 000a FFF7FEFF 		bl	vexSleep
 105              	.LVL5:
 106 000e FBE7     		b	.L4
 107              	.L7:
 108              		.align	2
ARM GAS  C:\Users\KE'OND~1\AppData\Local\Temp\cc2z7Sdr.s 			page 3


 109              	.L6:
 110 0010 00000000 		.word	.LC0
 111              		.cfi_endproc
 112              	.LFE65:
 113              		.size	vexAutonomous, .-vexAutonomous
 114 0014 AFF30080 		.section	.text.vexOperator,"ax",%progbits
 114      AFF30080 
 114      AFF30080 
 115              		.align	2
 116              		.p2align 4,,15
 117              		.global	vexOperator
 118              		.thumb
 119              		.thumb_func
 120              		.type	vexOperator, %function
 121              	vexOperator:
 122              	.LFB66:
 123              		.loc 1 156 0
 124              		.cfi_startproc
 125              		@ args = 0, pretend = 0, frame = 0
 126              		@ frame_needed = 0, uses_anonymous_args = 0
 127              	.LVL6:
 128 0000 2DE9F843 		push	{r3, r4, r5, r6, r7, r8, r9, lr}
 129              	.LCFI2:
 130              		.cfi_def_cfa_offset 32
 131              		.cfi_offset 3, -32
 132              		.cfi_offset 4, -28
 133              		.cfi_offset 5, -24
 134              		.cfi_offset 6, -20
 135              		.cfi_offset 7, -16
 136              		.cfi_offset 8, -12
 137              		.cfi_offset 9, -8
 138              		.cfi_offset 14, -4
 139              		.loc 1 166 0
 140 0004 DFF87081 		ldr	r8, .L20+4
 141              		.loc 1 161 0
 142 0008 5A48     		ldr	r0, .L20
 143              	.LVL7:
 144 000a FFF7FEFF 		bl	vexTaskRegister
 145              	.LVL8:
 146              		.loc 1 166 0
 147 000e D8F81830 		ldr	r3, [r8, #24]
 148 0012 5B7F     		ldrb	r3, [r3, #29]	@ zero_extendqisi2
 149 0014 03F00403 		and	r3, r3, #4
 150 0018 DBB2     		uxtb	r3, r3
 151 001a 002B     		cmp	r3, #0
 152 001c 40F0A680 		bne	.L15
 153              	.LBB2:
 154              		.loc 1 182 0
 155 0020 C146     		mov	r9, r8
 156 0022 74E0     		b	.L16
 157              	.LVL9:
 158              	.L19:
 159              		.loc 1 186 0
 160 0024 0F20     		movs	r0, #15
 161 0026 FFF7FEFF 		bl	vexControllerGet
 162              	.LVL10:
 163 002a 0546     		mov	r5, r0
ARM GAS  C:\Users\KE'OND~1\AppData\Local\Temp\cc2z7Sdr.s 			page 4


 164 002c 0E20     		movs	r0, #14
 165 002e FFF7FEFF 		bl	vexControllerGet
 166              	.LVL11:
 167 0032 05EB8505 		add	r5, r5, r5, lsl #2
 168 0036 00EB8010 		add	r0, r0, r0, lsl #6
 169 003a 05EB0515 		add	r5, r5, r5, lsl #4
 170 003e 4119     		adds	r1, r0, r5
 171 0040 09B2     		sxth	r1, r1
 172 0042 0220     		movs	r0, #2
 173 0044 FFF7FEFF 		bl	vexMotorSet
 174              	.LVL12:
 175              		.loc 1 187 0
 176 0048 0F20     		movs	r0, #15
 177 004a FFF7FEFF 		bl	vexControllerGet
 178              	.LVL13:
 179 004e 0546     		mov	r5, r0
 180 0050 0E20     		movs	r0, #14
 181 0052 FFF7FEFF 		bl	vexControllerGet
 182              	.LVL14:
 183 0056 05EB8505 		add	r5, r5, r5, lsl #2
 184 005a 00EB8010 		add	r0, r0, r0, lsl #6
 185 005e 05EB0515 		add	r5, r5, r5, lsl #4
 186 0062 4119     		adds	r1, r0, r5
 187 0064 09B2     		sxth	r1, r1
 188 0066 2046     		mov	r0, r4
 189 0068 FFF7FEFF 		bl	vexMotorSet
 190              	.LVL15:
 191              		.loc 1 189 0
 192 006c 0F20     		movs	r0, #15
 193 006e FFF7FEFF 		bl	vexControllerGet
 194              	.LVL16:
 195 0072 0446     		mov	r4, r0
 196 0074 0E20     		movs	r0, #14
 197 0076 FFF7FEFF 		bl	vexControllerGet
 198              	.LVL17:
 199 007a 04EB8404 		add	r4, r4, r4, lsl #2
 200 007e 00EB8010 		add	r0, r0, r0, lsl #6
 201 0082 04EB0414 		add	r4, r4, r4, lsl #4
 202 0086 0119     		adds	r1, r0, r4
 203 0088 09B2     		sxth	r1, r1
 204 008a 0720     		movs	r0, #7
 205 008c FFF7FEFF 		bl	vexMotorSet
 206              	.LVL18:
 207              		.loc 1 190 0
 208 0090 0F20     		movs	r0, #15
 209 0092 FFF7FEFF 		bl	vexControllerGet
 210              	.LVL19:
 211 0096 0446     		mov	r4, r0
 212 0098 0E20     		movs	r0, #14
 213 009a FFF7FEFF 		bl	vexControllerGet
 214              	.LVL20:
 215 009e 04EB8404 		add	r4, r4, r4, lsl #2
 216 00a2 00EB8010 		add	r0, r0, r0, lsl #6
 217 00a6 04EB0414 		add	r4, r4, r4, lsl #4
 218 00aa 0119     		adds	r1, r0, r4
 219 00ac 09B2     		sxth	r1, r1
 220 00ae 0920     		movs	r0, #9
ARM GAS  C:\Users\KE'OND~1\AppData\Local\Temp\cc2z7Sdr.s 			page 5


 221 00b0 FFF7FEFF 		bl	vexMotorSet
 222              	.LVL21:
 223              		.loc 1 193 0
 224 00b4 0D20     		movs	r0, #13
 225 00b6 FFF7FEFF 		bl	vexControllerGet
 226              	.LVL22:
 227 00ba 0446     		mov	r4, r0
 228 00bc 0C20     		movs	r0, #12
 229 00be FFF7FEFF 		bl	vexControllerGet
 230              	.LVL23:
 231 00c2 C4EBC414 		rsb	r4, r4, r4, lsl #7
 232 00c6 A0EBC010 		sub	r0, r0, r0, lsl #7
 233 00ca 0119     		adds	r1, r0, r4
 234 00cc 09B2     		sxth	r1, r1
 235 00ce 0520     		movs	r0, #5
 236 00d0 FFF7FEFF 		bl	vexMotorSet
 237              	.LVL24:
 238              		.loc 1 196 0
 239 00d4 0B20     		movs	r0, #11
 240 00d6 FFF7FEFF 		bl	vexControllerGet
 241              	.LVL25:
 242 00da 00EB8000 		add	r0, r0, r0, lsl #2
 243 00de 00EB0011 		add	r1, r0, r0, lsl #4
 244 00e2 09B2     		sxth	r1, r1
 245 00e4 0420     		movs	r0, #4
 246 00e6 FFF7FEFF 		bl	vexMotorSet
 247              	.LVL26:
 248              		.loc 1 199 0
 249 00ea 0920     		movs	r0, #9
 250 00ec 0121     		movs	r1, #1
 251 00ee FFF7FEFF 		bl	vexDigitalModeSet
 252              	.LVL27:
 253              		.loc 1 200 0
 254 00f2 0A20     		movs	r0, #10
 255 00f4 0121     		movs	r1, #1
 256 00f6 FFF7FEFF 		bl	vexDigitalModeSet
 257              	.LVL28:
 258              		.loc 1 206 0
 259 00fa 1920     		movs	r0, #25
 260 00fc FFF7FEFF 		bl	vexSleep
 261              	.LVL29:
 262              	.LBE2:
 263              		.loc 1 166 0
 264 0100 D9F81830 		ldr	r3, [r9, #24]
 265 0104 5B7F     		ldrb	r3, [r3, #29]	@ zero_extendqisi2
 266 0106 03F00403 		and	r3, r3, #4
 267 010a DBB2     		uxtb	r3, r3
 268 010c 73BB     		cbnz	r3, .L15
 269              	.L16:
 270              	.LBB3:
 271              		.loc 1 171 0
 272 010e 0320     		movs	r0, #3
 273 0110 FFF7FEFF 		bl	vexControllerGet
 274              	.LVL30:
 275 0114 0546     		mov	r5, r0
 276              	.LVL31:
 277              		.loc 1 172 0
ARM GAS  C:\Users\KE'OND~1\AppData\Local\Temp\cc2z7Sdr.s 			page 6


 278 0116 0220     		movs	r0, #2
 279              	.LVL32:
 280 0118 FFF7FEFF 		bl	vexControllerGet
 281              	.LVL33:
 282 011c 0646     		mov	r6, r0
 283              	.LVL34:
 284              		.loc 1 173 0
 285 011e 0020     		movs	r0, #0
 286              	.LVL35:
 287 0120 FFF7FEFF 		bl	vexControllerGet
 288              	.LVL36:
 289              		.loc 1 176 0
 290 0124 B6B2     		uxth	r6, r6
 291              	.LVL37:
 292 0126 ADB2     		uxth	r5, r5
 293              	.LVL38:
 294 0128 AF19     		adds	r7, r5, r6
 295 012a 84B2     		uxth	r4, r0
 296 012c BFB2     		uxth	r7, r7
 297 012e 3919     		adds	r1, r7, r4
 298 0130 0320     		movs	r0, #3
 299              	.LVL39:
 300 0132 09B2     		sxth	r1, r1
 301 0134 FFF7FEFF 		bl	vexMotorSet
 302              	.LVL40:
 303              		.loc 1 177 0
 304 0138 6119     		adds	r1, r4, r5
 305 013a 891B     		subs	r1, r1, r6
 306 013c 0120     		movs	r0, #1
 307 013e 09B2     		sxth	r1, r1
 308              		.loc 1 178 0
 309 0140 A619     		adds	r6, r4, r6
 310              		.loc 1 177 0
 311 0142 FFF7FEFF 		bl	vexMotorSet
 312              	.LVL41:
 313              		.loc 1 178 0
 314 0146 711B     		subs	r1, r6, r5
 315 0148 0820     		movs	r0, #8
 316 014a 09B2     		sxth	r1, r1
 317 014c FFF7FEFF 		bl	vexMotorSet
 318              	.LVL42:
 319              		.loc 1 179 0
 320 0150 E11B     		subs	r1, r4, r7
 321 0152 0620     		movs	r0, #6
 322 0154 09B2     		sxth	r1, r1
 323 0156 FFF7FEFF 		bl	vexMotorSet
 324              	.LVL43:
 325              		.loc 1 182 0
 326 015a D8F81830 		ldr	r3, [r8, #24]
 327 015e 5C7F     		ldrb	r4, [r3, #29]	@ zero_extendqisi2
 328              	.LVL44:
 329 0160 04F00404 		and	r4, r4, #4
 330 0164 E4B2     		uxtb	r4, r4
 331 0166 002C     		cmp	r4, #0
 332 0168 3FF45CAF 		beq	.L19
 333              	.L15:
 334              	.LBE3:
ARM GAS  C:\Users\KE'OND~1\AppData\Local\Temp\cc2z7Sdr.s 			page 7


 335              		.loc 1 210 0
 336 016c 0020     		movs	r0, #0
 337 016e BDE8F883 		pop	{r3, r4, r5, r6, r7, r8, r9, pc}
 338              	.L21:
 339 0172 00BF     		.align	2
 340              	.L20:
 341 0174 08000000 		.word	.LC1
 342 0178 00000000 		.word	rlist
 343              		.cfi_endproc
 344              	.LFE66:
 345              		.size	vexOperator, .-vexOperator
 346 017c AFF30080 		.section	.rodata.str1.4,"aMS",%progbits,1
 347              		.align	2
 348              	.LC0:
 349 0000 6175746F 		.ascii	"auton\000"
 349      6E00
 350 0006 0000     		.space	2
 351              	.LC1:
 352 0008 6F706572 		.ascii	"operator\000"
 352      61746F72 
 352      00
 353 0011 000000   		.section	.data.mConfig,"aw",%progbits
 354              		.align	2
 355              		.set	.LANCHOR1,. + 0
 356              		.type	mConfig, %object
 357              		.size	mConfig, 60
 358              	mConfig:
 359 0000 00       		.byte	0
 360 0001 03       		.byte	3
 361 0002 01       		.byte	1
 362 0003 06       		.byte	6
 363 0004 0000     		.short	0
 364 0006 01       		.byte	1
 365 0007 02       		.byte	2
 366 0008 00       		.byte	0
 367 0009 00       		.byte	0
 368 000a 0000     		.short	0
 369 000c 02       		.byte	2
 370 000d 03       		.byte	3
 371 000e 00       		.byte	0
 372 000f 00       		.byte	0
 373 0010 0000     		.short	0
 374 0012 03       		.byte	3
 375 0013 02       		.byte	2
 376 0014 00       		.byte	0
 377 0015 00       		.byte	0
 378 0016 0000     		.short	0
 379 0018 04       		.byte	4
 380 0019 02       		.byte	2
 381 001a 01       		.byte	1
 382 001b 00       		.byte	0
 383 001c 0000     		.short	0
 384 001e 05       		.byte	5
 385 001f 02       		.byte	2
 386 0020 00       		.byte	0
 387 0021 00       		.byte	0
 388 0022 0000     		.short	0
ARM GAS  C:\Users\KE'OND~1\AppData\Local\Temp\cc2z7Sdr.s 			page 8


 389 0024 06       		.byte	6
 390 0025 02       		.byte	2
 391 0026 00       		.byte	0
 392 0027 00       		.byte	0
 393 0028 0000     		.short	0
 394 002a 07       		.byte	7
 395 002b 03       		.byte	3
 396 002c 00       		.byte	0
 397 002d 00       		.byte	0
 398 002e 0000     		.short	0
 399 0030 08       		.byte	8
 400 0031 02       		.byte	2
 401 0032 00       		.byte	0
 402 0033 00       		.byte	0
 403 0034 0000     		.short	0
 404 0036 09       		.byte	9
 405 0037 03       		.byte	3
 406 0038 00       		.byte	0
 407 0039 06       		.byte	6
 408 003a 0100     		.short	1
 409              		.section	.data.dConfig,"aw",%progbits
 410              		.align	2
 411              		.set	.LANCHOR0,. + 0
 412              		.type	dConfig, %object
 413              		.size	dConfig, 72
 414              	dConfig:
 415 0000 00       		.byte	0
 416 0001 02       		.byte	2
 417 0002 01       		.byte	1
 418 0003 00       		.space	1
 419 0004 0000     		.short	0
 420 0006 01       		.byte	1
 421 0007 02       		.byte	2
 422 0008 01       		.byte	1
 423 0009 00       		.space	1
 424 000a 0000     		.short	0
 425 000c 02       		.byte	2
 426 000d 01       		.byte	1
 427 000e 00       		.byte	0
 428 000f 00       		.space	1
 429 0010 0000     		.short	0
 430 0012 03       		.byte	3
 431 0013 01       		.byte	1
 432 0014 00       		.byte	0
 433 0015 00       		.space	1
 434 0016 0000     		.short	0
 435 0018 04       		.byte	4
 436 0019 01       		.byte	1
 437 001a 00       		.byte	0
 438 001b 00       		.space	1
 439 001c 0000     		.short	0
 440 001e 05       		.byte	5
 441 001f 01       		.byte	1
 442 0020 00       		.byte	0
 443 0021 00       		.space	1
 444 0022 0000     		.short	0
 445 0024 06       		.byte	6
ARM GAS  C:\Users\KE'OND~1\AppData\Local\Temp\cc2z7Sdr.s 			page 9


 446 0025 01       		.byte	1
 447 0026 00       		.byte	0
 448 0027 00       		.space	1
 449 0028 0000     		.short	0
 450 002a 07       		.byte	7
 451 002b 01       		.byte	1
 452 002c 00       		.byte	0
 453 002d 00       		.space	1
 454 002e 0000     		.short	0
 455 0030 08       		.byte	8
 456 0031 01       		.byte	1
 457 0032 00       		.byte	0
 458 0033 00       		.space	1
 459 0034 0000     		.short	0
 460 0036 09       		.byte	9
 461 0037 01       		.byte	1
 462 0038 00       		.byte	0
 463 0039 00       		.space	1
 464 003a 0000     		.short	0
 465 003c 0A       		.byte	10
 466 003d 01       		.byte	1
 467 003e 00       		.byte	0
 468 003f 00       		.space	1
 469 0040 0000     		.short	0
 470 0042 0B       		.byte	11
 471 0043 01       		.byte	1
 472 0044 00       		.byte	0
 473 0045 00       		.space	1
 474 0046 0000     		.short	0
 475              		.text
 476              	.Letext0:
 477              		.file 2 "c:/yagarto-20121222/lib/gcc/../../arm-none-eabi/sys-include/stdint.h"
 478              		.file 3 "../ChibiOS_2.6.2/os/ports/GCC/ARMCMx/chtypes.h"
 479              		.file 4 "../ChibiOS_2.6.2/os/kernel/include/chlists.h"
 480              		.file 5 "../ChibiOS_2.6.2/os/kernel/include/chthreads.h"
 481              		.file 6 "../ChibiOS_2.6.2/os/ports/GCC/ARMCMx/chcore_v7m.h"
 482              		.file 7 "../ChibiOS_2.6.2/os/kernel/include/chschd.h"
 483              		.file 8 "../ChibiOS_2.6.2/os/kernel/include/chmtx.h"
 484              		.file 9 "../convex/cortex/fw/vexdigital.h"
 485              		.file 10 "../convex/cortex/fw/vexmotor.h"
 486              		.file 11 "../convex/cortex/fw/vexime.h"
 487              		.file 12 "../convex/cortex/fw/vexconfig.h"
 488              		.file 13 "../convex/cortex/fw/vexctl.h"
 489              		.file 14 "../ChibiOS_2.6.2/os/ports/common/ARMCMx/CMSIS/include/core_cm3.h"
 490              		.file 15 "../convex/cortex/fw/vex.h"